
SW_ICU.elf:     file format elf32-avr

Sections:
Idx Name          Size      VMA       LMA       File off  Algn
  0 .text         0000248e  00000000  00000000  00000094  2**1
                  CONTENTS, ALLOC, LOAD, READONLY, CODE
  1 .data         00000034  00800060  0000248e  00002522  2**0
                  CONTENTS, ALLOC, LOAD, DATA
  2 .bss          0000000a  00800094  00800094  00002556  2**0
                  ALLOC
  3 .comment      00000030  00000000  00000000  00002556  2**0
                  CONTENTS, READONLY
  4 .note.gnu.avr.deviceinfo 0000003c  00000000  00000000  00002588  2**2
                  CONTENTS, READONLY
  5 .debug_aranges 00000250  00000000  00000000  000025c4  2**0
                  CONTENTS, READONLY, DEBUGGING
  6 .debug_info   000067bc  00000000  00000000  00002814  2**0
                  CONTENTS, READONLY, DEBUGGING
  7 .debug_abbrev 00000b0f  00000000  00000000  00008fd0  2**0
                  CONTENTS, READONLY, DEBUGGING
  8 .debug_line   00001d98  00000000  00000000  00009adf  2**0
                  CONTENTS, READONLY, DEBUGGING
  9 .debug_frame  00000580  00000000  00000000  0000b878  2**2
                  CONTENTS, READONLY, DEBUGGING
 10 .debug_str    000008ac  00000000  00000000  0000bdf8  2**0
                  CONTENTS, READONLY, DEBUGGING
 11 .debug_loc    00000ea1  00000000  00000000  0000c6a4  2**0
                  CONTENTS, READONLY, DEBUGGING
 12 .debug_ranges 000001e0  00000000  00000000  0000d545  2**0
                  CONTENTS, READONLY, DEBUGGING

Disassembly of section .text:

00000000 <__vectors>:
       0:	0c 94 7b 00 	jmp	0xf6	; 0xf6 <__ctors_end>
       4:	0c 94 b9 01 	jmp	0x372	; 0x372 <__vector_1>
       8:	0c 94 58 10 	jmp	0x20b0	; 0x20b0 <__vector_2>
       c:	0c 94 6d 10 	jmp	0x20da	; 0x20da <__vector_3>
      10:	0c 94 98 00 	jmp	0x130	; 0x130 <__bad_interrupt>
      14:	0c 94 98 00 	jmp	0x130	; 0x130 <__bad_interrupt>
      18:	0c 94 98 00 	jmp	0x130	; 0x130 <__bad_interrupt>
      1c:	0c 94 98 00 	jmp	0x130	; 0x130 <__bad_interrupt>
      20:	0c 94 98 00 	jmp	0x130	; 0x130 <__bad_interrupt>
      24:	0c 94 98 00 	jmp	0x130	; 0x130 <__bad_interrupt>
      28:	0c 94 98 00 	jmp	0x130	; 0x130 <__bad_interrupt>
      2c:	0c 94 82 10 	jmp	0x2104	; 0x2104 <__vector_11>
      30:	0c 94 98 00 	jmp	0x130	; 0x130 <__bad_interrupt>
      34:	0c 94 98 00 	jmp	0x130	; 0x130 <__bad_interrupt>
      38:	0c 94 98 00 	jmp	0x130	; 0x130 <__bad_interrupt>
      3c:	0c 94 98 00 	jmp	0x130	; 0x130 <__bad_interrupt>
      40:	0c 94 98 00 	jmp	0x130	; 0x130 <__bad_interrupt>
      44:	0c 94 98 00 	jmp	0x130	; 0x130 <__bad_interrupt>
      48:	0c 94 98 00 	jmp	0x130	; 0x130 <__bad_interrupt>
      4c:	0c 94 98 00 	jmp	0x130	; 0x130 <__bad_interrupt>
      50:	0c 94 98 00 	jmp	0x130	; 0x130 <__bad_interrupt>
      54:	3d 10       	cpse	r3, r13
      56:	63 0f       	add	r22, r19
      58:	63 0f       	add	r22, r19
      5a:	63 0f       	add	r22, r19
      5c:	63 0f       	add	r22, r19
      5e:	63 0f       	add	r22, r19
      60:	63 0f       	add	r22, r19
      62:	63 0f       	add	r22, r19
      64:	63 0f       	add	r22, r19
      66:	63 0f       	add	r22, r19
      68:	40 10       	cpse	r4, r0
      6a:	63 0f       	add	r22, r19
      6c:	63 0f       	add	r22, r19
      6e:	63 0f       	add	r22, r19
      70:	63 0f       	add	r22, r19
      72:	63 0f       	add	r22, r19
      74:	63 0f       	add	r22, r19
      76:	63 0f       	add	r22, r19
      78:	63 0f       	add	r22, r19
      7a:	63 0f       	add	r22, r19
      7c:	43 10       	cpse	r4, r3
      7e:	63 0f       	add	r22, r19
      80:	63 0f       	add	r22, r19
      82:	63 0f       	add	r22, r19
      84:	63 0f       	add	r22, r19
      86:	63 0f       	add	r22, r19
      88:	63 0f       	add	r22, r19
      8a:	63 0f       	add	r22, r19
      8c:	63 0f       	add	r22, r19
      8e:	63 0f       	add	r22, r19
      90:	46 10       	cpse	r4, r6
      92:	63 0f       	add	r22, r19
      94:	63 0f       	add	r22, r19
      96:	63 0f       	add	r22, r19
      98:	63 0f       	add	r22, r19
      9a:	63 0f       	add	r22, r19
      9c:	63 0f       	add	r22, r19
      9e:	63 0f       	add	r22, r19
      a0:	63 0f       	add	r22, r19
      a2:	63 0f       	add	r22, r19
      a4:	49 10       	cpse	r4, r9
      a6:	63 0f       	add	r22, r19
      a8:	63 0f       	add	r22, r19
      aa:	63 0f       	add	r22, r19
      ac:	63 0f       	add	r22, r19
      ae:	63 0f       	add	r22, r19
      b0:	63 0f       	add	r22, r19
      b2:	63 0f       	add	r22, r19
      b4:	63 0f       	add	r22, r19
      b6:	63 0f       	add	r22, r19
      b8:	4c 10       	cpse	r4, r12
      ba:	63 0f       	add	r22, r19
      bc:	63 0f       	add	r22, r19
      be:	63 0f       	add	r22, r19
      c0:	63 0f       	add	r22, r19
      c2:	63 0f       	add	r22, r19
      c4:	63 0f       	add	r22, r19
      c6:	63 0f       	add	r22, r19
      c8:	63 0f       	add	r22, r19
      ca:	63 0f       	add	r22, r19
      cc:	4f 10       	cpse	r4, r15
      ce:	63 0f       	add	r22, r19
      d0:	63 0f       	add	r22, r19
      d2:	63 0f       	add	r22, r19
      d4:	63 0f       	add	r22, r19
      d6:	63 0f       	add	r22, r19
      d8:	63 0f       	add	r22, r19
      da:	63 0f       	add	r22, r19
      dc:	63 0f       	add	r22, r19
      de:	63 0f       	add	r22, r19
      e0:	52 10       	cpse	r5, r2
      e2:	63 0f       	add	r22, r19
      e4:	63 0f       	add	r22, r19
      e6:	63 0f       	add	r22, r19
      e8:	63 0f       	add	r22, r19
      ea:	63 0f       	add	r22, r19
      ec:	63 0f       	add	r22, r19
      ee:	63 0f       	add	r22, r19
      f0:	63 0f       	add	r22, r19
      f2:	63 0f       	add	r22, r19
      f4:	55 10       	cpse	r5, r5

000000f6 <__ctors_end>:
      f6:	11 24       	eor	r1, r1
      f8:	1f be       	out	0x3f, r1	; 63
      fa:	cf e5       	ldi	r28, 0x5F	; 95
      fc:	d8 e0       	ldi	r29, 0x08	; 8
      fe:	de bf       	out	0x3e, r29	; 62
     100:	cd bf       	out	0x3d, r28	; 61

00000102 <__do_copy_data>:
     102:	10 e0       	ldi	r17, 0x00	; 0
     104:	a0 e6       	ldi	r26, 0x60	; 96
     106:	b0 e0       	ldi	r27, 0x00	; 0
     108:	ee e8       	ldi	r30, 0x8E	; 142
     10a:	f4 e2       	ldi	r31, 0x24	; 36
     10c:	02 c0       	rjmp	.+4      	; 0x112 <__do_copy_data+0x10>
     10e:	05 90       	lpm	r0, Z+
     110:	0d 92       	st	X+, r0
     112:	a4 39       	cpi	r26, 0x94	; 148
     114:	b1 07       	cpc	r27, r17
     116:	d9 f7       	brne	.-10     	; 0x10e <__do_copy_data+0xc>

00000118 <__do_clear_bss>:
     118:	20 e0       	ldi	r18, 0x00	; 0
     11a:	a4 e9       	ldi	r26, 0x94	; 148
     11c:	b0 e0       	ldi	r27, 0x00	; 0
     11e:	01 c0       	rjmp	.+2      	; 0x122 <.do_clear_bss_start>

00000120 <.do_clear_bss_loop>:
     120:	1d 92       	st	X+, r1

00000122 <.do_clear_bss_start>:
     122:	ae 39       	cpi	r26, 0x9E	; 158
     124:	b2 07       	cpc	r27, r18
     126:	e1 f7       	brne	.-8      	; 0x120 <.do_clear_bss_loop>
     128:	0e 94 31 0f 	call	0x1e62	; 0x1e62 <main>
     12c:	0c 94 45 12 	jmp	0x248a	; 0x248a <_exit>

00000130 <__bad_interrupt>:
     130:	0c 94 00 00 	jmp	0	; 0x0 <__vectors>

00000134 <DIO_Vid_Set_Pin_Dir>:
void DIO_u8_Toogle_Pin_Val(u8 Copy_u8_port, u8 Copy_u8_pin) {
	switch(Copy_u8_port){
		case PORTA : TOOGLE_BIT(PORTA_REG,Copy_u8_pin); break;
		case PORTB : TOOGLE_BIT(PORTB_REG,Copy_u8_pin); break;
		case PORTC : TOOGLE_BIT(PORTC_REG,Copy_u8_pin); break;
		case PORTD : TOOGLE_BIT(PORTD_REG,Copy_u8_pin); break;
     134:	42 30       	cpi	r20, 0x02	; 2
     136:	08 f0       	brcs	.+2      	; 0x13a <DIO_Vid_Set_Pin_Dir+0x6>
     138:	6d c0       	rjmp	.+218    	; 0x214 <DIO_Vid_Set_Pin_Dir+0xe0>
     13a:	41 30       	cpi	r20, 0x01	; 1
     13c:	a1 f5       	brne	.+104    	; 0x1a6 <DIO_Vid_Set_Pin_Dir+0x72>
     13e:	81 30       	cpi	r24, 0x01	; 1
     140:	89 f0       	breq	.+34     	; 0x164 <DIO_Vid_Set_Pin_Dir+0x30>
     142:	28 f0       	brcs	.+10     	; 0x14e <DIO_Vid_Set_Pin_Dir+0x1a>
     144:	82 30       	cpi	r24, 0x02	; 2
     146:	c9 f0       	breq	.+50     	; 0x17a <DIO_Vid_Set_Pin_Dir+0x46>
     148:	83 30       	cpi	r24, 0x03	; 3
     14a:	11 f1       	breq	.+68     	; 0x190 <DIO_Vid_Set_Pin_Dir+0x5c>
     14c:	08 95       	ret
     14e:	2a b3       	in	r18, 0x1a	; 26
     150:	81 e0       	ldi	r24, 0x01	; 1
     152:	90 e0       	ldi	r25, 0x00	; 0
     154:	02 c0       	rjmp	.+4      	; 0x15a <DIO_Vid_Set_Pin_Dir+0x26>
     156:	88 0f       	add	r24, r24
     158:	99 1f       	adc	r25, r25
     15a:	6a 95       	dec	r22
     15c:	e2 f7       	brpl	.-8      	; 0x156 <DIO_Vid_Set_Pin_Dir+0x22>
     15e:	82 2b       	or	r24, r18
     160:	8a bb       	out	0x1a, r24	; 26
     162:	08 95       	ret
     164:	27 b3       	in	r18, 0x17	; 23
     166:	81 e0       	ldi	r24, 0x01	; 1
     168:	90 e0       	ldi	r25, 0x00	; 0
     16a:	02 c0       	rjmp	.+4      	; 0x170 <DIO_Vid_Set_Pin_Dir+0x3c>
     16c:	88 0f       	add	r24, r24
     16e:	99 1f       	adc	r25, r25
     170:	6a 95       	dec	r22
     172:	e2 f7       	brpl	.-8      	; 0x16c <DIO_Vid_Set_Pin_Dir+0x38>
     174:	82 2b       	or	r24, r18
     176:	87 bb       	out	0x17, r24	; 23
     178:	08 95       	ret
     17a:	24 b3       	in	r18, 0x14	; 20
     17c:	81 e0       	ldi	r24, 0x01	; 1
     17e:	90 e0       	ldi	r25, 0x00	; 0
     180:	02 c0       	rjmp	.+4      	; 0x186 <DIO_Vid_Set_Pin_Dir+0x52>
     182:	88 0f       	add	r24, r24
     184:	99 1f       	adc	r25, r25
     186:	6a 95       	dec	r22
     188:	e2 f7       	brpl	.-8      	; 0x182 <DIO_Vid_Set_Pin_Dir+0x4e>
     18a:	82 2b       	or	r24, r18
     18c:	84 bb       	out	0x14, r24	; 20
     18e:	08 95       	ret
     190:	21 b3       	in	r18, 0x11	; 17
     192:	81 e0       	ldi	r24, 0x01	; 1
     194:	90 e0       	ldi	r25, 0x00	; 0
     196:	02 c0       	rjmp	.+4      	; 0x19c <DIO_Vid_Set_Pin_Dir+0x68>
     198:	88 0f       	add	r24, r24
     19a:	99 1f       	adc	r25, r25
     19c:	6a 95       	dec	r22
     19e:	e2 f7       	brpl	.-8      	; 0x198 <DIO_Vid_Set_Pin_Dir+0x64>
     1a0:	82 2b       	or	r24, r18
     1a2:	81 bb       	out	0x11, r24	; 17
     1a4:	08 95       	ret
     1a6:	81 30       	cpi	r24, 0x01	; 1
     1a8:	91 f0       	breq	.+36     	; 0x1ce <DIO_Vid_Set_Pin_Dir+0x9a>
     1aa:	28 f0       	brcs	.+10     	; 0x1b6 <DIO_Vid_Set_Pin_Dir+0x82>
     1ac:	82 30       	cpi	r24, 0x02	; 2
     1ae:	d9 f0       	breq	.+54     	; 0x1e6 <DIO_Vid_Set_Pin_Dir+0xb2>
     1b0:	83 30       	cpi	r24, 0x03	; 3
     1b2:	29 f1       	breq	.+74     	; 0x1fe <DIO_Vid_Set_Pin_Dir+0xca>
     1b4:	08 95       	ret
     1b6:	2a b3       	in	r18, 0x1a	; 26
     1b8:	81 e0       	ldi	r24, 0x01	; 1
     1ba:	90 e0       	ldi	r25, 0x00	; 0
     1bc:	02 c0       	rjmp	.+4      	; 0x1c2 <DIO_Vid_Set_Pin_Dir+0x8e>
     1be:	88 0f       	add	r24, r24
     1c0:	99 1f       	adc	r25, r25
     1c2:	6a 95       	dec	r22
     1c4:	e2 f7       	brpl	.-8      	; 0x1be <DIO_Vid_Set_Pin_Dir+0x8a>
     1c6:	80 95       	com	r24
     1c8:	82 23       	and	r24, r18
     1ca:	8a bb       	out	0x1a, r24	; 26
     1cc:	08 95       	ret
     1ce:	27 b3       	in	r18, 0x17	; 23
     1d0:	81 e0       	ldi	r24, 0x01	; 1
     1d2:	90 e0       	ldi	r25, 0x00	; 0
     1d4:	02 c0       	rjmp	.+4      	; 0x1da <DIO_Vid_Set_Pin_Dir+0xa6>
     1d6:	88 0f       	add	r24, r24
     1d8:	99 1f       	adc	r25, r25
     1da:	6a 95       	dec	r22
     1dc:	e2 f7       	brpl	.-8      	; 0x1d6 <DIO_Vid_Set_Pin_Dir+0xa2>
     1de:	80 95       	com	r24
     1e0:	82 23       	and	r24, r18
     1e2:	87 bb       	out	0x17, r24	; 23
     1e4:	08 95       	ret
     1e6:	24 b3       	in	r18, 0x14	; 20
     1e8:	81 e0       	ldi	r24, 0x01	; 1
     1ea:	90 e0       	ldi	r25, 0x00	; 0
     1ec:	02 c0       	rjmp	.+4      	; 0x1f2 <DIO_Vid_Set_Pin_Dir+0xbe>
     1ee:	88 0f       	add	r24, r24
     1f0:	99 1f       	adc	r25, r25
     1f2:	6a 95       	dec	r22
     1f4:	e2 f7       	brpl	.-8      	; 0x1ee <DIO_Vid_Set_Pin_Dir+0xba>
     1f6:	80 95       	com	r24
     1f8:	82 23       	and	r24, r18
     1fa:	84 bb       	out	0x14, r24	; 20
     1fc:	08 95       	ret
     1fe:	21 b3       	in	r18, 0x11	; 17
     200:	81 e0       	ldi	r24, 0x01	; 1
     202:	90 e0       	ldi	r25, 0x00	; 0
     204:	02 c0       	rjmp	.+4      	; 0x20a <DIO_Vid_Set_Pin_Dir+0xd6>
     206:	88 0f       	add	r24, r24
     208:	99 1f       	adc	r25, r25
     20a:	6a 95       	dec	r22
     20c:	e2 f7       	brpl	.-8      	; 0x206 <DIO_Vid_Set_Pin_Dir+0xd2>
     20e:	80 95       	com	r24
     210:	82 23       	and	r24, r18
     212:	81 bb       	out	0x11, r24	; 17
     214:	08 95       	ret

00000216 <DIO_Vid_Set_Pin_Val>:
     216:	42 30       	cpi	r20, 0x02	; 2
     218:	08 f0       	brcs	.+2      	; 0x21c <DIO_Vid_Set_Pin_Val+0x6>
     21a:	6d c0       	rjmp	.+218    	; 0x2f6 <DIO_Vid_Set_Pin_Val+0xe0>
     21c:	41 30       	cpi	r20, 0x01	; 1
     21e:	a1 f5       	brne	.+104    	; 0x288 <DIO_Vid_Set_Pin_Val+0x72>
     220:	81 30       	cpi	r24, 0x01	; 1
     222:	89 f0       	breq	.+34     	; 0x246 <DIO_Vid_Set_Pin_Val+0x30>
     224:	28 f0       	brcs	.+10     	; 0x230 <DIO_Vid_Set_Pin_Val+0x1a>
     226:	82 30       	cpi	r24, 0x02	; 2
     228:	c9 f0       	breq	.+50     	; 0x25c <DIO_Vid_Set_Pin_Val+0x46>
     22a:	83 30       	cpi	r24, 0x03	; 3
     22c:	11 f1       	breq	.+68     	; 0x272 <DIO_Vid_Set_Pin_Val+0x5c>
     22e:	08 95       	ret
     230:	2b b3       	in	r18, 0x1b	; 27
     232:	81 e0       	ldi	r24, 0x01	; 1
     234:	90 e0       	ldi	r25, 0x00	; 0
     236:	02 c0       	rjmp	.+4      	; 0x23c <DIO_Vid_Set_Pin_Val+0x26>
     238:	88 0f       	add	r24, r24
     23a:	99 1f       	adc	r25, r25
     23c:	6a 95       	dec	r22
     23e:	e2 f7       	brpl	.-8      	; 0x238 <DIO_Vid_Set_Pin_Val+0x22>
     240:	82 2b       	or	r24, r18
     242:	8b bb       	out	0x1b, r24	; 27
     244:	08 95       	ret
     246:	28 b3       	in	r18, 0x18	; 24
     248:	81 e0       	ldi	r24, 0x01	; 1
     24a:	90 e0       	ldi	r25, 0x00	; 0
     24c:	02 c0       	rjmp	.+4      	; 0x252 <DIO_Vid_Set_Pin_Val+0x3c>
     24e:	88 0f       	add	r24, r24
     250:	99 1f       	adc	r25, r25
     252:	6a 95       	dec	r22
     254:	e2 f7       	brpl	.-8      	; 0x24e <DIO_Vid_Set_Pin_Val+0x38>
     256:	82 2b       	or	r24, r18
     258:	88 bb       	out	0x18, r24	; 24
     25a:	08 95       	ret
     25c:	25 b3       	in	r18, 0x15	; 21
     25e:	81 e0       	ldi	r24, 0x01	; 1
     260:	90 e0       	ldi	r25, 0x00	; 0
     262:	02 c0       	rjmp	.+4      	; 0x268 <DIO_Vid_Set_Pin_Val+0x52>
     264:	88 0f       	add	r24, r24
     266:	99 1f       	adc	r25, r25
     268:	6a 95       	dec	r22
     26a:	e2 f7       	brpl	.-8      	; 0x264 <DIO_Vid_Set_Pin_Val+0x4e>
     26c:	82 2b       	or	r24, r18
     26e:	85 bb       	out	0x15, r24	; 21
     270:	08 95       	ret
     272:	22 b3       	in	r18, 0x12	; 18
     274:	81 e0       	ldi	r24, 0x01	; 1
     276:	90 e0       	ldi	r25, 0x00	; 0
     278:	02 c0       	rjmp	.+4      	; 0x27e <DIO_Vid_Set_Pin_Val+0x68>
     27a:	88 0f       	add	r24, r24
     27c:	99 1f       	adc	r25, r25
     27e:	6a 95       	dec	r22
     280:	e2 f7       	brpl	.-8      	; 0x27a <DIO_Vid_Set_Pin_Val+0x64>
     282:	82 2b       	or	r24, r18
     284:	82 bb       	out	0x12, r24	; 18
     286:	08 95       	ret
     288:	81 30       	cpi	r24, 0x01	; 1
     28a:	91 f0       	breq	.+36     	; 0x2b0 <DIO_Vid_Set_Pin_Val+0x9a>
     28c:	28 f0       	brcs	.+10     	; 0x298 <DIO_Vid_Set_Pin_Val+0x82>
     28e:	82 30       	cpi	r24, 0x02	; 2
     290:	d9 f0       	breq	.+54     	; 0x2c8 <DIO_Vid_Set_Pin_Val+0xb2>
     292:	83 30       	cpi	r24, 0x03	; 3
     294:	29 f1       	breq	.+74     	; 0x2e0 <DIO_Vid_Set_Pin_Val+0xca>
     296:	08 95       	ret
     298:	2b b3       	in	r18, 0x1b	; 27
     29a:	81 e0       	ldi	r24, 0x01	; 1
     29c:	90 e0       	ldi	r25, 0x00	; 0
     29e:	02 c0       	rjmp	.+4      	; 0x2a4 <DIO_Vid_Set_Pin_Val+0x8e>
     2a0:	88 0f       	add	r24, r24
     2a2:	99 1f       	adc	r25, r25
     2a4:	6a 95       	dec	r22
     2a6:	e2 f7       	brpl	.-8      	; 0x2a0 <DIO_Vid_Set_Pin_Val+0x8a>
     2a8:	80 95       	com	r24
     2aa:	82 23       	and	r24, r18
     2ac:	8b bb       	out	0x1b, r24	; 27
     2ae:	08 95       	ret
     2b0:	28 b3       	in	r18, 0x18	; 24
     2b2:	81 e0       	ldi	r24, 0x01	; 1
     2b4:	90 e0       	ldi	r25, 0x00	; 0
     2b6:	02 c0       	rjmp	.+4      	; 0x2bc <DIO_Vid_Set_Pin_Val+0xa6>
     2b8:	88 0f       	add	r24, r24
     2ba:	99 1f       	adc	r25, r25
     2bc:	6a 95       	dec	r22
     2be:	e2 f7       	brpl	.-8      	; 0x2b8 <DIO_Vid_Set_Pin_Val+0xa2>
     2c0:	80 95       	com	r24
     2c2:	82 23       	and	r24, r18
     2c4:	88 bb       	out	0x18, r24	; 24
     2c6:	08 95       	ret
     2c8:	25 b3       	in	r18, 0x15	; 21
     2ca:	81 e0       	ldi	r24, 0x01	; 1
     2cc:	90 e0       	ldi	r25, 0x00	; 0
     2ce:	02 c0       	rjmp	.+4      	; 0x2d4 <DIO_Vid_Set_Pin_Val+0xbe>
     2d0:	88 0f       	add	r24, r24
     2d2:	99 1f       	adc	r25, r25
     2d4:	6a 95       	dec	r22
     2d6:	e2 f7       	brpl	.-8      	; 0x2d0 <DIO_Vid_Set_Pin_Val+0xba>
     2d8:	80 95       	com	r24
     2da:	82 23       	and	r24, r18
     2dc:	85 bb       	out	0x15, r24	; 21
     2de:	08 95       	ret
     2e0:	22 b3       	in	r18, 0x12	; 18
     2e2:	81 e0       	ldi	r24, 0x01	; 1
     2e4:	90 e0       	ldi	r25, 0x00	; 0
     2e6:	02 c0       	rjmp	.+4      	; 0x2ec <DIO_Vid_Set_Pin_Val+0xd6>
     2e8:	88 0f       	add	r24, r24
     2ea:	99 1f       	adc	r25, r25
     2ec:	6a 95       	dec	r22
     2ee:	e2 f7       	brpl	.-8      	; 0x2e8 <DIO_Vid_Set_Pin_Val+0xd2>
     2f0:	80 95       	com	r24
     2f2:	82 23       	and	r24, r18
     2f4:	82 bb       	out	0x12, r24	; 18
     2f6:	08 95       	ret

000002f8 <DIO_Vid_Set_Port_Dir>:
	}
}

void DIO_Vid_Set_Port_Dir (u8 Copy_u8_port, u8 Copy_u8_dir) {
	
	switch(Copy_u8_port){
     2f8:	81 30       	cpi	r24, 0x01	; 1
     2fa:	41 f0       	breq	.+16     	; 0x30c <DIO_Vid_Set_Port_Dir+0x14>
     2fc:	28 f0       	brcs	.+10     	; 0x308 <DIO_Vid_Set_Port_Dir+0x10>
     2fe:	82 30       	cpi	r24, 0x02	; 2
     300:	39 f0       	breq	.+14     	; 0x310 <DIO_Vid_Set_Port_Dir+0x18>
     302:	83 30       	cpi	r24, 0x03	; 3
     304:	39 f0       	breq	.+14     	; 0x314 <DIO_Vid_Set_Port_Dir+0x1c>
     306:	08 95       	ret
		case PORTA : DDRA_REG = Copy_u8_dir; break;
     308:	6a bb       	out	0x1a, r22	; 26
     30a:	08 95       	ret
		case PORTB : DDRB_REG = Copy_u8_dir; break;
     30c:	67 bb       	out	0x17, r22	; 23
     30e:	08 95       	ret
		case PORTC : DDRC_REG = Copy_u8_dir; break;
     310:	64 bb       	out	0x14, r22	; 20
     312:	08 95       	ret
		case PORTD : DDRD_REG = Copy_u8_dir; break;
     314:	61 bb       	out	0x11, r22	; 17
     316:	08 95       	ret

00000318 <EXT_Vid_Interrupt_Init0>:
#include "DIO_interface.h"


void EXT_Vid_Interrupt_Init0(u8 INT_SENSE_CONTROL){
	
	if(INT_SENSE_CONTROL == FALLING_EDGE){
     318:	82 30       	cpi	r24, 0x02	; 2
     31a:	39 f4       	brne	.+14     	; 0x32a <EXT_Vid_Interrupt_Init0+0x12>
		/* INT0 */
		CLR_BIT(MCUCR_REG,ISC00) ;
     31c:	85 b7       	in	r24, 0x35	; 53
     31e:	8e 7f       	andi	r24, 0xFE	; 254
     320:	85 bf       	out	0x35, r24	; 53
		SET_BIT(MCUCR_REG,ISC01) ;
     322:	85 b7       	in	r24, 0x35	; 53
     324:	82 60       	ori	r24, 0x02	; 2
     326:	85 bf       	out	0x35, r24	; 53
     328:	08 95       	ret
	}
	else if (INT_SENSE_CONTROL == RISING_EDGE){
     32a:	83 30       	cpi	r24, 0x03	; 3
     32c:	31 f4       	brne	.+12     	; 0x33a <EXT_Vid_Interrupt_Init0+0x22>
		/* INT0 */
		SET_BIT(MCUCR_REG,ISC00) ;
     32e:	85 b7       	in	r24, 0x35	; 53
     330:	81 60       	ori	r24, 0x01	; 1
     332:	85 bf       	out	0x35, r24	; 53
		SET_BIT(MCUCR_REG,ISC01) ;
     334:	85 b7       	in	r24, 0x35	; 53
     336:	82 60       	ori	r24, 0x02	; 2
     338:	85 bf       	out	0x35, r24	; 53
     33a:	08 95       	ret

0000033c <EXT_Vid_Interrupt_Init12>:

void EXT_Vid_Interrupt_Init12(void){
	
	/* FROM HTE TABLE CHOSSING THE RISING_EDGE OF (INT1, INT2) */
	/* INT1 */
	SET_BIT(MCUCR_REG,ISC11) ;
     33c:	85 b7       	in	r24, 0x35	; 53
     33e:	88 60       	ori	r24, 0x08	; 8
     340:	85 bf       	out	0x35, r24	; 53
	SET_BIT(MCUCR_REG,ISC10) ;
     342:	85 b7       	in	r24, 0x35	; 53
     344:	84 60       	ori	r24, 0x04	; 4
     346:	85 bf       	out	0x35, r24	; 53
	/* INT2*/
	SET_BIT(MCUCSR_REG,ISC2) ;
     348:	84 b7       	in	r24, 0x34	; 52
     34a:	80 64       	ori	r24, 0x40	; 64
     34c:	84 bf       	out	0x34, r24	; 52
     34e:	08 95       	ret

00000350 <EXT_Vid_Enable_Interrupt0>:
}

void EXT_Vid_Enable_Interrupt0(void){
	
	/* enable interrupt (PIE)*/
	SET_BIT(GICR_REG,INT_0) ;
     350:	8b b7       	in	r24, 0x3b	; 59
     352:	80 64       	ori	r24, 0x40	; 64
     354:	8b bf       	out	0x3b, r24	; 59
     356:	08 95       	ret

00000358 <EXT_Vid_Enable_Interrupt1>:
}

void EXT_Vid_Enable_Interrupt1(void){
	
	/* enable interrupt (PIE)*/
	SET_BIT(GICR_REG,INT_1) ;
     358:	8b b7       	in	r24, 0x3b	; 59
     35a:	80 68       	ori	r24, 0x80	; 128
     35c:	8b bf       	out	0x3b, r24	; 59
     35e:	08 95       	ret

00000360 <EXT_Vid_Enable_Interrupt2>:
}

void EXT_Vid_Enable_Interrupt2(void){
	
	/* enable interrupt (PIE)*/
	SET_BIT(GICR_REG,INT_2) ;
     360:	8b b7       	in	r24, 0x3b	; 59
     362:	80 62       	ori	r24, 0x20	; 32
     364:	8b bf       	out	0x3b, r24	; 59
     366:	08 95       	ret

00000368 <SET_CallBack>:

/* POINTER TO FUNCTION */
void (*ptr_set)(void) = 0;
/* CALL BACK FUNCTION THAT ASSIGN THE FUNCTION ADDRESS TO THE POINTER */ 
void SET_CallBack( void (*ptr)(void) ){
	ptr_set = ptr;
     368:	90 93 95 00 	sts	0x0095, r25	; 0x800095 <__data_end+0x1>
     36c:	80 93 94 00 	sts	0x0094, r24	; 0x800094 <__data_end>
     370:	08 95       	ret

00000372 <__vector_1>:
}

/* THIS IS ISR() FUNCTION IN WHICH WHEN INT0 IS HAPPEN IT AUTOMATICALLY JUMP TO THIS FUNCTION TO DO IT */
void __vector_1(void)__attribute__((signal)) ;
void __vector_1(void){
     372:	1f 92       	push	r1
     374:	0f 92       	push	r0
     376:	0f b6       	in	r0, 0x3f	; 63
     378:	0f 92       	push	r0
     37a:	11 24       	eor	r1, r1
     37c:	2f 93       	push	r18
     37e:	3f 93       	push	r19
     380:	4f 93       	push	r20
     382:	5f 93       	push	r21
     384:	6f 93       	push	r22
     386:	7f 93       	push	r23
     388:	8f 93       	push	r24
     38a:	9f 93       	push	r25
     38c:	af 93       	push	r26
     38e:	bf 93       	push	r27
     390:	ef 93       	push	r30
     392:	ff 93       	push	r31
	ptr_set();
     394:	e0 91 94 00 	lds	r30, 0x0094	; 0x800094 <__data_end>
     398:	f0 91 95 00 	lds	r31, 0x0095	; 0x800095 <__data_end+0x1>
     39c:	09 95       	icall
     39e:	ff 91       	pop	r31
     3a0:	ef 91       	pop	r30
     3a2:	bf 91       	pop	r27
     3a4:	af 91       	pop	r26
     3a6:	9f 91       	pop	r25
     3a8:	8f 91       	pop	r24
     3aa:	7f 91       	pop	r23
     3ac:	6f 91       	pop	r22
     3ae:	5f 91       	pop	r21
     3b0:	4f 91       	pop	r20
     3b2:	3f 91       	pop	r19
     3b4:	2f 91       	pop	r18
     3b6:	0f 90       	pop	r0
     3b8:	0f be       	out	0x3f, r0	; 63
     3ba:	0f 90       	pop	r0
     3bc:	1f 90       	pop	r1
     3be:	18 95       	reti

000003c0 <GIE_Vid_Interrupt_Enable>:
#include "STD_TYPE.h"
#include "GIE_private.h"

void GIE_Vid_Interrupt_Enable(void){
	
	SET_BIT(SREG_REG,7) ;
     3c0:	8f b7       	in	r24, 0x3f	; 63
     3c2:	80 68       	ori	r24, 0x80	; 128
     3c4:	8f bf       	out	0x3f, r24	; 63
     3c6:	08 95       	ret

000003c8 <SHDATA>:
	
	/* SEND THE DATA OF THE CHAR */
	for (i = 0; i < 8; i++) {
		LCD_Vid_Send_Data(copy_u8_charData[i]);  
	}
}
     3c8:	0f 93       	push	r16
     3ca:	1f 93       	push	r17
     3cc:	cf 93       	push	r28
     3ce:	df 93       	push	r29
     3d0:	00 d0       	rcall	.+0      	; 0x3d2 <SHDATA+0xa>
     3d2:	00 d0       	rcall	.+0      	; 0x3d4 <SHDATA+0xc>
     3d4:	cd b7       	in	r28, 0x3d	; 61
     3d6:	de b7       	in	r29, 0x3e	; 62
     3d8:	08 2f       	mov	r16, r24
     3da:	84 e0       	ldi	r24, 0x04	; 4
     3dc:	89 83       	std	Y+1, r24	; 0x01
     3de:	85 e0       	ldi	r24, 0x05	; 5
     3e0:	8a 83       	std	Y+2, r24	; 0x02
     3e2:	86 e0       	ldi	r24, 0x06	; 6
     3e4:	8b 83       	std	Y+3, r24	; 0x03
     3e6:	87 e0       	ldi	r24, 0x07	; 7
     3e8:	8c 83       	std	Y+4, r24	; 0x04
     3ea:	10 e0       	ldi	r17, 0x00	; 0
     3ec:	14 c0       	rjmp	.+40     	; 0x416 <__EEPROM_REGION_LENGTH__+0x16>
     3ee:	40 2f       	mov	r20, r16
     3f0:	50 e0       	ldi	r21, 0x00	; 0
     3f2:	01 2e       	mov	r0, r17
     3f4:	02 c0       	rjmp	.+4      	; 0x3fa <SHDATA+0x32>
     3f6:	55 95       	asr	r21
     3f8:	47 95       	ror	r20
     3fa:	0a 94       	dec	r0
     3fc:	e2 f7       	brpl	.-8      	; 0x3f6 <SHDATA+0x2e>
     3fe:	41 70       	andi	r20, 0x01	; 1
     400:	e1 e0       	ldi	r30, 0x01	; 1
     402:	f0 e0       	ldi	r31, 0x00	; 0
     404:	ec 0f       	add	r30, r28
     406:	fd 1f       	adc	r31, r29
     408:	e1 0f       	add	r30, r17
     40a:	f1 1d       	adc	r31, r1
     40c:	60 81       	ld	r22, Z
     40e:	80 e0       	ldi	r24, 0x00	; 0
     410:	0e 94 0b 01 	call	0x216	; 0x216 <DIO_Vid_Set_Pin_Val>
     414:	1f 5f       	subi	r17, 0xFF	; 255
     416:	14 30       	cpi	r17, 0x04	; 4
     418:	50 f3       	brcs	.-44     	; 0x3ee <SHDATA+0x26>
     41a:	0f 90       	pop	r0
     41c:	0f 90       	pop	r0
     41e:	0f 90       	pop	r0
     420:	0f 90       	pop	r0
     422:	df 91       	pop	r29
     424:	cf 91       	pop	r28
     426:	1f 91       	pop	r17
     428:	0f 91       	pop	r16
     42a:	08 95       	ret

0000042c <Send_Enable>:
     42c:	41 e0       	ldi	r20, 0x01	; 1
     42e:	62 e0       	ldi	r22, 0x02	; 2
     430:	80 e0       	ldi	r24, 0x00	; 0
     432:	0e 94 0b 01 	call	0x216	; 0x216 <DIO_Vid_Set_Pin_Val>
     436:	8f e3       	ldi	r24, 0x3F	; 63
     438:	9f e1       	ldi	r25, 0x1F	; 31
     43a:	01 97       	sbiw	r24, 0x01	; 1
     43c:	f1 f7       	brne	.-4      	; 0x43a <Send_Enable+0xe>
     43e:	00 c0       	rjmp	.+0      	; 0x440 <Send_Enable+0x14>
     440:	00 00       	nop
     442:	40 e0       	ldi	r20, 0x00	; 0
     444:	62 e0       	ldi	r22, 0x02	; 2
     446:	80 e0       	ldi	r24, 0x00	; 0
     448:	0e 94 0b 01 	call	0x216	; 0x216 <DIO_Vid_Set_Pin_Val>
     44c:	08 95       	ret

0000044e <LCD_Vid_Send_Command>:
     44e:	cf 93       	push	r28
     450:	c8 2f       	mov	r28, r24
     452:	40 e0       	ldi	r20, 0x00	; 0
     454:	60 e0       	ldi	r22, 0x00	; 0
     456:	80 e0       	ldi	r24, 0x00	; 0
     458:	0e 94 0b 01 	call	0x216	; 0x216 <DIO_Vid_Set_Pin_Val>
     45c:	40 e0       	ldi	r20, 0x00	; 0
     45e:	61 e0       	ldi	r22, 0x01	; 1
     460:	80 e0       	ldi	r24, 0x00	; 0
     462:	0e 94 0b 01 	call	0x216	; 0x216 <DIO_Vid_Set_Pin_Val>
     466:	8c 2f       	mov	r24, r28
     468:	82 95       	swap	r24
     46a:	8f 70       	andi	r24, 0x0F	; 15
     46c:	0e 94 e4 01 	call	0x3c8	; 0x3c8 <SHDATA>
     470:	0e 94 16 02 	call	0x42c	; 0x42c <Send_Enable>
     474:	8c 2f       	mov	r24, r28
     476:	0e 94 e4 01 	call	0x3c8	; 0x3c8 <SHDATA>
     47a:	0e 94 16 02 	call	0x42c	; 0x42c <Send_Enable>
     47e:	cf 91       	pop	r28
     480:	08 95       	ret

00000482 <LCD_Vid_Send_Data>:
     482:	cf 93       	push	r28
     484:	c8 2f       	mov	r28, r24
     486:	41 e0       	ldi	r20, 0x01	; 1
     488:	60 e0       	ldi	r22, 0x00	; 0
     48a:	80 e0       	ldi	r24, 0x00	; 0
     48c:	0e 94 0b 01 	call	0x216	; 0x216 <DIO_Vid_Set_Pin_Val>
     490:	40 e0       	ldi	r20, 0x00	; 0
     492:	61 e0       	ldi	r22, 0x01	; 1
     494:	80 e0       	ldi	r24, 0x00	; 0
     496:	0e 94 0b 01 	call	0x216	; 0x216 <DIO_Vid_Set_Pin_Val>
     49a:	8c 2f       	mov	r24, r28
     49c:	82 95       	swap	r24
     49e:	8f 70       	andi	r24, 0x0F	; 15
     4a0:	0e 94 e4 01 	call	0x3c8	; 0x3c8 <SHDATA>
     4a4:	0e 94 16 02 	call	0x42c	; 0x42c <Send_Enable>
     4a8:	8c 2f       	mov	r24, r28
     4aa:	0e 94 e4 01 	call	0x3c8	; 0x3c8 <SHDATA>
     4ae:	0e 94 16 02 	call	0x42c	; 0x42c <Send_Enable>
     4b2:	cf 91       	pop	r28
     4b4:	08 95       	ret

000004b6 <LCD_Vid_Init>:
     4b6:	2f ef       	ldi	r18, 0xFF	; 255
     4b8:	83 ef       	ldi	r24, 0xF3	; 243
     4ba:	91 e0       	ldi	r25, 0x01	; 1
     4bc:	21 50       	subi	r18, 0x01	; 1
     4be:	80 40       	sbci	r24, 0x00	; 0
     4c0:	90 40       	sbci	r25, 0x00	; 0
     4c2:	e1 f7       	brne	.-8      	; 0x4bc <LCD_Vid_Init+0x6>
     4c4:	00 c0       	rjmp	.+0      	; 0x4c6 <LCD_Vid_Init+0x10>
     4c6:	00 00       	nop
     4c8:	82 e0       	ldi	r24, 0x02	; 2
     4ca:	0e 94 e4 01 	call	0x3c8	; 0x3c8 <SHDATA>
     4ce:	0e 94 16 02 	call	0x42c	; 0x42c <Send_Enable>
     4d2:	82 e0       	ldi	r24, 0x02	; 2
     4d4:	0e 94 e4 01 	call	0x3c8	; 0x3c8 <SHDATA>
     4d8:	0e 94 16 02 	call	0x42c	; 0x42c <Send_Enable>
     4dc:	88 e0       	ldi	r24, 0x08	; 8
     4de:	0e 94 e4 01 	call	0x3c8	; 0x3c8 <SHDATA>
     4e2:	0e 94 16 02 	call	0x42c	; 0x42c <Send_Enable>
     4e6:	8c e0       	ldi	r24, 0x0C	; 12
     4e8:	0e 94 27 02 	call	0x44e	; 0x44e <LCD_Vid_Send_Command>
     4ec:	81 e0       	ldi	r24, 0x01	; 1
     4ee:	0e 94 27 02 	call	0x44e	; 0x44e <LCD_Vid_Send_Command>
     4f2:	08 95       	ret

000004f4 <LCD_Vid_Send_String>:
     4f4:	ef 92       	push	r14
     4f6:	ff 92       	push	r15
     4f8:	0f 93       	push	r16
     4fa:	1f 93       	push	r17
     4fc:	cf 93       	push	r28
     4fe:	7c 01       	movw	r14, r24
     500:	c0 e0       	ldi	r28, 0x00	; 0
     502:	0a c0       	rjmp	.+20     	; 0x518 <LCD_Vid_Send_String+0x24>
     504:	c0 31       	cpi	r28, 0x10	; 16
     506:	19 f4       	brne	.+6      	; 0x50e <LCD_Vid_Send_String+0x1a>
     508:	80 ec       	ldi	r24, 0xC0	; 192
     50a:	0e 94 27 02 	call	0x44e	; 0x44e <LCD_Vid_Send_Command>
     50e:	f8 01       	movw	r30, r16
     510:	80 81       	ld	r24, Z
     512:	0e 94 41 02 	call	0x482	; 0x482 <LCD_Vid_Send_Data>
     516:	cf 5f       	subi	r28, 0xFF	; 255
     518:	87 01       	movw	r16, r14
     51a:	0c 0f       	add	r16, r28
     51c:	11 1d       	adc	r17, r1
     51e:	f8 01       	movw	r30, r16
     520:	80 81       	ld	r24, Z
     522:	81 11       	cpse	r24, r1
     524:	ef cf       	rjmp	.-34     	; 0x504 <LCD_Vid_Send_String+0x10>
     526:	cf 91       	pop	r28
     528:	1f 91       	pop	r17
     52a:	0f 91       	pop	r16
     52c:	ff 90       	pop	r15
     52e:	ef 90       	pop	r14
     530:	08 95       	ret

00000532 <LCD_Vid_Send_Number>:
     532:	cf 92       	push	r12
     534:	df 92       	push	r13
     536:	ff 92       	push	r15
     538:	0f 93       	push	r16
     53a:	1f 93       	push	r17
     53c:	cf 93       	push	r28
     53e:	df 93       	push	r29
     540:	cd b7       	in	r28, 0x3d	; 61
     542:	de b7       	in	r29, 0x3e	; 62
     544:	2a 97       	sbiw	r28, 0x0a	; 10
     546:	0f b6       	in	r0, 0x3f	; 63
     548:	f8 94       	cli
     54a:	de bf       	out	0x3e, r29	; 62
     54c:	0f be       	out	0x3f, r0	; 63
     54e:	cd bf       	out	0x3d, r28	; 61
     550:	8c 01       	movw	r16, r24
     552:	99 23       	and	r25, r25
     554:	5c f1       	brlt	.+86     	; 0x5ac <LCD_Vid_Send_Number+0x7a>
     556:	f1 2c       	mov	r15, r1
     558:	01 c0       	rjmp	.+2      	; 0x55c <LCD_Vid_Send_Number+0x2a>
     55a:	f8 2e       	mov	r15, r24
     55c:	cf 2c       	mov	r12, r15
     55e:	d1 2c       	mov	r13, r1
     560:	c8 01       	movw	r24, r16
     562:	6a e0       	ldi	r22, 0x0A	; 10
     564:	70 e0       	ldi	r23, 0x00	; 0
     566:	0e 94 17 12 	call	0x242e	; 0x242e <__divmodhi4>
     56a:	e1 e0       	ldi	r30, 0x01	; 1
     56c:	f0 e0       	ldi	r31, 0x00	; 0
     56e:	ec 0f       	add	r30, r28
     570:	fd 1f       	adc	r31, r29
     572:	ec 0d       	add	r30, r12
     574:	fd 1d       	adc	r31, r13
     576:	80 83       	st	Z, r24
     578:	06 2f       	mov	r16, r22
     57a:	17 2f       	mov	r17, r23
     57c:	81 e0       	ldi	r24, 0x01	; 1
     57e:	8f 0d       	add	r24, r15
     580:	10 16       	cp	r1, r16
     582:	11 06       	cpc	r1, r17
     584:	54 f3       	brlt	.-44     	; 0x55a <LCD_Vid_Send_Number+0x28>
     586:	10 e0       	ldi	r17, 0x00	; 0
     588:	0e c0       	rjmp	.+28     	; 0x5a6 <LCD_Vid_Send_Number+0x74>
     58a:	f6 01       	movw	r30, r12
     58c:	e1 1b       	sub	r30, r17
     58e:	f1 09       	sbc	r31, r1
     590:	81 e0       	ldi	r24, 0x01	; 1
     592:	90 e0       	ldi	r25, 0x00	; 0
     594:	8c 0f       	add	r24, r28
     596:	9d 1f       	adc	r25, r29
     598:	e8 0f       	add	r30, r24
     59a:	f9 1f       	adc	r31, r25
     59c:	80 81       	ld	r24, Z
     59e:	80 5d       	subi	r24, 0xD0	; 208
     5a0:	0e 94 41 02 	call	0x482	; 0x482 <LCD_Vid_Send_Data>
     5a4:	1f 5f       	subi	r17, 0xFF	; 255
     5a6:	f1 16       	cp	r15, r17
     5a8:	80 f7       	brcc	.-32     	; 0x58a <LCD_Vid_Send_Number+0x58>
     5aa:	32 c0       	rjmp	.+100    	; 0x610 <LCD_Vid_Send_Number+0xde>
     5ac:	99 23       	and	r25, r25
     5ae:	84 f5       	brge	.+96     	; 0x610 <LCD_Vid_Send_Number+0xde>
     5b0:	8d e2       	ldi	r24, 0x2D	; 45
     5b2:	0e 94 41 02 	call	0x482	; 0x482 <LCD_Vid_Send_Data>
     5b6:	88 27       	eor	r24, r24
     5b8:	99 27       	eor	r25, r25
     5ba:	80 1b       	sub	r24, r16
     5bc:	91 0b       	sbc	r25, r17
     5be:	10 e0       	ldi	r17, 0x00	; 0
     5c0:	01 c0       	rjmp	.+2      	; 0x5c4 <LCD_Vid_Send_Number+0x92>
     5c2:	12 2f       	mov	r17, r18
     5c4:	c1 2e       	mov	r12, r17
     5c6:	d1 2c       	mov	r13, r1
     5c8:	6a e0       	ldi	r22, 0x0A	; 10
     5ca:	70 e0       	ldi	r23, 0x00	; 0
     5cc:	0e 94 17 12 	call	0x242e	; 0x242e <__divmodhi4>
     5d0:	e1 e0       	ldi	r30, 0x01	; 1
     5d2:	f0 e0       	ldi	r31, 0x00	; 0
     5d4:	ec 0f       	add	r30, r28
     5d6:	fd 1f       	adc	r31, r29
     5d8:	ec 0d       	add	r30, r12
     5da:	fd 1d       	adc	r31, r13
     5dc:	80 83       	st	Z, r24
     5de:	86 2f       	mov	r24, r22
     5e0:	97 2f       	mov	r25, r23
     5e2:	21 e0       	ldi	r18, 0x01	; 1
     5e4:	21 0f       	add	r18, r17
     5e6:	18 16       	cp	r1, r24
     5e8:	19 06       	cpc	r1, r25
     5ea:	5c f3       	brlt	.-42     	; 0x5c2 <LCD_Vid_Send_Number+0x90>
     5ec:	00 e0       	ldi	r16, 0x00	; 0
     5ee:	0e c0       	rjmp	.+28     	; 0x60c <LCD_Vid_Send_Number+0xda>
     5f0:	f6 01       	movw	r30, r12
     5f2:	e0 1b       	sub	r30, r16
     5f4:	f1 09       	sbc	r31, r1
     5f6:	81 e0       	ldi	r24, 0x01	; 1
     5f8:	90 e0       	ldi	r25, 0x00	; 0
     5fa:	8c 0f       	add	r24, r28
     5fc:	9d 1f       	adc	r25, r29
     5fe:	e8 0f       	add	r30, r24
     600:	f9 1f       	adc	r31, r25
     602:	80 81       	ld	r24, Z
     604:	80 5d       	subi	r24, 0xD0	; 208
     606:	0e 94 41 02 	call	0x482	; 0x482 <LCD_Vid_Send_Data>
     60a:	0f 5f       	subi	r16, 0xFF	; 255
     60c:	10 17       	cp	r17, r16
     60e:	80 f7       	brcc	.-32     	; 0x5f0 <LCD_Vid_Send_Number+0xbe>
     610:	2a 96       	adiw	r28, 0x0a	; 10
     612:	0f b6       	in	r0, 0x3f	; 63
     614:	f8 94       	cli
     616:	de bf       	out	0x3e, r29	; 62
     618:	0f be       	out	0x3f, r0	; 63
     61a:	cd bf       	out	0x3d, r28	; 61
     61c:	df 91       	pop	r29
     61e:	cf 91       	pop	r28
     620:	1f 91       	pop	r17
     622:	0f 91       	pop	r16
     624:	ff 90       	pop	r15
     626:	df 90       	pop	r13
     628:	cf 90       	pop	r12
     62a:	08 95       	ret

0000062c <LCD_Vid_GotoXY>:
     62c:	66 23       	and	r22, r22
     62e:	29 f0       	breq	.+10     	; 0x63a <LCD_Vid_GotoXY+0xe>
     630:	61 30       	cpi	r22, 0x01	; 1
     632:	11 f4       	brne	.+4      	; 0x638 <LCD_Vid_GotoXY+0xc>
     634:	80 5c       	subi	r24, 0xC0	; 192
     636:	01 c0       	rjmp	.+2      	; 0x63a <LCD_Vid_GotoXY+0xe>
     638:	80 e0       	ldi	r24, 0x00	; 0
     63a:	80 68       	ori	r24, 0x80	; 128
     63c:	0e 94 27 02 	call	0x44e	; 0x44e <LCD_Vid_Send_Command>
     640:	08 95       	ret

00000642 <LCD_Vid_Send_Custom_Char>:

void LCD_Vid_Send_Custom_Char(u8 copy_u8_x, u8 copy_u8_y, u8 copy_u8_add, u8 copy_u8_charData[8]) {
     642:	ef 92       	push	r14
     644:	ff 92       	push	r15
     646:	0f 93       	push	r16
     648:	1f 93       	push	r17
     64a:	cf 93       	push	r28
     64c:	df 93       	push	r29
     64e:	f8 2e       	mov	r15, r24
     650:	e6 2e       	mov	r14, r22
     652:	d4 2f       	mov	r29, r20
     654:	89 01       	movw	r16, r18
	u8 Loc_u8_in;
	u8 Loc_u8_CGRAMadd = copy_u8_add * 8;
     656:	84 2f       	mov	r24, r20
     658:	88 0f       	add	r24, r24
     65a:	88 0f       	add	r24, r24
     65c:	88 0f       	add	r24, r24
     65e:	8f 77       	andi	r24, 0x7F	; 127
	
	SET_BIT(Loc_u8_CGRAMadd, 6);
	CLR_BIT(Loc_u8_CGRAMadd, 7);
	
	/* SET THE ADDRESS OF THE CGRAM */
	LCD_Vid_Send_Command(Loc_u8_CGRAMadd);
     660:	80 64       	ori	r24, 0x40	; 64
     662:	0e 94 27 02 	call	0x44e	; 0x44e <LCD_Vid_Send_Command>
	
	/* SEND THE DATA OF THE CHAR TO CGRAM */
	for (Loc_u8_in = 0; Loc_u8_in < 8; Loc_u8_in++) {
     666:	c0 e0       	ldi	r28, 0x00	; 0
     668:	07 c0       	rjmp	.+14     	; 0x678 <LCD_Vid_Send_Custom_Char+0x36>
		LCD_Vid_Send_Data(copy_u8_charData[Loc_u8_in]);
     66a:	f8 01       	movw	r30, r16
     66c:	ec 0f       	add	r30, r28
     66e:	f1 1d       	adc	r31, r1
     670:	80 81       	ld	r24, Z
     672:	0e 94 41 02 	call	0x482	; 0x482 <LCD_Vid_Send_Data>
	
	/* SET THE ADDRESS OF THE CGRAM */
	LCD_Vid_Send_Command(Loc_u8_CGRAMadd);
	
	/* SEND THE DATA OF THE CHAR TO CGRAM */
	for (Loc_u8_in = 0; Loc_u8_in < 8; Loc_u8_in++) {
     676:	cf 5f       	subi	r28, 0xFF	; 255
     678:	c8 30       	cpi	r28, 0x08	; 8
     67a:	b8 f3       	brcs	.-18     	; 0x66a <LCD_Vid_Send_Custom_Char+0x28>
		LCD_Vid_Send_Data(copy_u8_charData[Loc_u8_in]);
	}
	
	/* BACK TO DDRAM TO DISPLAY DATA */
	LCD_Vid_GotoXY(copy_u8_x, copy_u8_y);
     67c:	6e 2d       	mov	r22, r14
     67e:	8f 2d       	mov	r24, r15
     680:	0e 94 16 03 	call	0x62c	; 0x62c <LCD_Vid_GotoXY>
	LCD_Vid_Send_Data(copy_u8_add);
     684:	8d 2f       	mov	r24, r29
     686:	0e 94 41 02 	call	0x482	; 0x482 <LCD_Vid_Send_Data>
}
     68a:	df 91       	pop	r29
     68c:	cf 91       	pop	r28
     68e:	1f 91       	pop	r17
     690:	0f 91       	pop	r16
     692:	ff 90       	pop	r15
     694:	ef 90       	pop	r14
     696:	08 95       	ret

00000698 <SW_ICU>:
    }
}

void SW_ICU(){
	static u8 count = 0;
	count++;
     698:	80 91 96 00 	lds	r24, 0x0096	; 0x800096 <count.1856>
     69c:	8f 5f       	subi	r24, 0xFF	; 255
     69e:	80 93 96 00 	sts	0x0096, r24	; 0x800096 <count.1856>
	if(count == 1){
     6a2:	81 30       	cpi	r24, 0x01	; 1
     6a4:	31 f4       	brne	.+12     	; 0x6b2 <SW_ICU+0x1a>
		/* RESET TIMER */
		TIMER1_Vid_Reset_Timer();
     6a6:	0e 94 e7 10 	call	0x21ce	; 0x21ce <TIMER1_Vid_Reset_Timer>
		EXT_Vid_Interrupt_Init0(FALLING_EDGE); 
     6aa:	82 e0       	ldi	r24, 0x02	; 2
     6ac:	0e 94 8c 01 	call	0x318	; 0x318 <EXT_Vid_Interrupt_Init0>
     6b0:	08 95       	ret
	}
	else if(count == 2){
     6b2:	82 30       	cpi	r24, 0x02	; 2
     6b4:	51 f4       	brne	.+20     	; 0x6ca <SW_ICU+0x32>
		on_tick = TIMER1_u32_ReadVal();
     6b6:	0e 94 ea 10 	call	0x21d4	; 0x21d4 <TIMER1_u32_ReadVal>
     6ba:	90 93 9a 00 	sts	0x009A, r25	; 0x80009a <on_tick+0x1>
     6be:	80 93 99 00 	sts	0x0099, r24	; 0x800099 <on_tick>
		EXT_Vid_Interrupt_Init0(RISING_EDGE);	
     6c2:	83 e0       	ldi	r24, 0x03	; 3
     6c4:	0e 94 8c 01 	call	0x318	; 0x318 <EXT_Vid_Interrupt_Init0>
     6c8:	08 95       	ret
	}
	else if(count == 3){
     6ca:	83 30       	cpi	r24, 0x03	; 3
     6cc:	51 f4       	brne	.+20     	; 0x6e2 <SW_ICU+0x4a>
		tov_tick = TIMER1_u32_ReadVal();
     6ce:	0e 94 ea 10 	call	0x21d4	; 0x21d4 <TIMER1_u32_ReadVal>
     6d2:	90 93 98 00 	sts	0x0098, r25	; 0x800098 <tov_tick+0x1>
     6d6:	80 93 97 00 	sts	0x0097, r24	; 0x800097 <tov_tick>
		count = 0;
     6da:	10 92 96 00 	sts	0x0096, r1	; 0x800096 <count.1856>
		TIMER1_Vid_Reset_Timer();
     6de:	0e 94 e7 10 	call	0x21ce	; 0x21ce <TIMER1_Vid_Reset_Timer>
     6e2:	08 95       	ret

000006e4 <lcd_0>:
volatile static u32 on_tick = 0;
volatile static u32 tov_tick = 0;
u8 char1[] = {0x00,0x00,0x00,0x07,0x04,0x04,0x1C,0x00};
u8 char2[] = {0x00,0x00,0x00,0x1C,0x04,0x04,0x07,0x00};
void lcd_0(){
	LCD_Vid_GotoXY(COL1,ROW1);
     6e4:	60 e0       	ldi	r22, 0x00	; 0
     6e6:	80 e0       	ldi	r24, 0x00	; 0
     6e8:	0e 94 16 03 	call	0x62c	; 0x62c <LCD_Vid_GotoXY>
	LCD_Vid_Send_String("____________");
     6ec:	80 e7       	ldi	r24, 0x70	; 112
     6ee:	90 e0       	ldi	r25, 0x00	; 0
     6f0:	0e 94 7a 02 	call	0x4f4	; 0x4f4 <LCD_Vid_Send_String>
     6f4:	08 95       	ret

000006f6 <lcd_10>:
}
void lcd_10(){
	LCD_Vid_GotoXY(COL1,ROW1);
     6f6:	60 e0       	ldi	r22, 0x00	; 0
     6f8:	80 e0       	ldi	r24, 0x00	; 0
     6fa:	0e 94 16 03 	call	0x62c	; 0x62c <LCD_Vid_GotoXY>
	LCD_Vid_Send_String("_________");
     6fe:	83 e7       	ldi	r24, 0x73	; 115
     700:	90 e0       	ldi	r25, 0x00	; 0
     702:	0e 94 7a 02 	call	0x4f4	; 0x4f4 <LCD_Vid_Send_String>
	LCD_Vid_Send_Custom_Char(COL10,ROW1,0,char1);
     706:	28 e6       	ldi	r18, 0x68	; 104
     708:	30 e0       	ldi	r19, 0x00	; 0
     70a:	40 e0       	ldi	r20, 0x00	; 0
     70c:	60 e0       	ldi	r22, 0x00	; 0
     70e:	89 e0       	ldi	r24, 0x09	; 9
     710:	0e 94 21 03 	call	0x642	; 0x642 <LCD_Vid_Send_Custom_Char>
	LCD_Vid_Send_String("-");
     714:	88 e8       	ldi	r24, 0x88	; 136
     716:	90 e0       	ldi	r25, 0x00	; 0
     718:	0e 94 7a 02 	call	0x4f4	; 0x4f4 <LCD_Vid_Send_String>
	LCD_Vid_Send_Custom_Char(COL12,ROW1,1,char2); 
     71c:	20 e6       	ldi	r18, 0x60	; 96
     71e:	30 e0       	ldi	r19, 0x00	; 0
     720:	41 e0       	ldi	r20, 0x01	; 1
     722:	60 e0       	ldi	r22, 0x00	; 0
     724:	8b e0       	ldi	r24, 0x0B	; 11
     726:	0e 94 21 03 	call	0x642	; 0x642 <LCD_Vid_Send_Custom_Char>
	//_delay_ms(10);
	LCD_Vid_GotoXY(COL1,ROW1);
     72a:	60 e0       	ldi	r22, 0x00	; 0
     72c:	80 e0       	ldi	r24, 0x00	; 0
     72e:	0e 94 16 03 	call	0x62c	; 0x62c <LCD_Vid_GotoXY>
	LCD_Vid_Send_String("________");
     732:	84 e7       	ldi	r24, 0x74	; 116
     734:	90 e0       	ldi	r25, 0x00	; 0
     736:	0e 94 7a 02 	call	0x4f4	; 0x4f4 <LCD_Vid_Send_String>
	LCD_Vid_Send_Custom_Char(COL9,ROW1,0,char1);  
     73a:	28 e6       	ldi	r18, 0x68	; 104
     73c:	30 e0       	ldi	r19, 0x00	; 0
     73e:	40 e0       	ldi	r20, 0x00	; 0
     740:	60 e0       	ldi	r22, 0x00	; 0
     742:	88 e0       	ldi	r24, 0x08	; 8
     744:	0e 94 21 03 	call	0x642	; 0x642 <LCD_Vid_Send_Custom_Char>
	LCD_Vid_Send_String("-");
     748:	88 e8       	ldi	r24, 0x88	; 136
     74a:	90 e0       	ldi	r25, 0x00	; 0
     74c:	0e 94 7a 02 	call	0x4f4	; 0x4f4 <LCD_Vid_Send_String>
	LCD_Vid_Send_Custom_Char(COL11,ROW1,1,char2);
     750:	20 e6       	ldi	r18, 0x60	; 96
     752:	30 e0       	ldi	r19, 0x00	; 0
     754:	41 e0       	ldi	r20, 0x01	; 1
     756:	60 e0       	ldi	r22, 0x00	; 0
     758:	8a e0       	ldi	r24, 0x0A	; 10
     75a:	0e 94 21 03 	call	0x642	; 0x642 <LCD_Vid_Send_Custom_Char>
	LCD_Vid_Send_String("_");
     75e:	8b e7       	ldi	r24, 0x7B	; 123
     760:	90 e0       	ldi	r25, 0x00	; 0
     762:	0e 94 7a 02 	call	0x4f4	; 0x4f4 <LCD_Vid_Send_String>
	//_delay_ms(10);
	LCD_Vid_GotoXY(COL1,ROW1);
     766:	60 e0       	ldi	r22, 0x00	; 0
     768:	80 e0       	ldi	r24, 0x00	; 0
     76a:	0e 94 16 03 	call	0x62c	; 0x62c <LCD_Vid_GotoXY>
	LCD_Vid_Send_String("_______");
     76e:	85 e7       	ldi	r24, 0x75	; 117
     770:	90 e0       	ldi	r25, 0x00	; 0
     772:	0e 94 7a 02 	call	0x4f4	; 0x4f4 <LCD_Vid_Send_String>
	LCD_Vid_Send_Custom_Char(COL8,ROW1,0,char1);
     776:	28 e6       	ldi	r18, 0x68	; 104
     778:	30 e0       	ldi	r19, 0x00	; 0
     77a:	40 e0       	ldi	r20, 0x00	; 0
     77c:	60 e0       	ldi	r22, 0x00	; 0
     77e:	87 e0       	ldi	r24, 0x07	; 7
     780:	0e 94 21 03 	call	0x642	; 0x642 <LCD_Vid_Send_Custom_Char>
	LCD_Vid_Send_String("-");
     784:	88 e8       	ldi	r24, 0x88	; 136
     786:	90 e0       	ldi	r25, 0x00	; 0
     788:	0e 94 7a 02 	call	0x4f4	; 0x4f4 <LCD_Vid_Send_String>
	LCD_Vid_Send_Custom_Char(COL10,ROW1,1,char2);
     78c:	20 e6       	ldi	r18, 0x60	; 96
     78e:	30 e0       	ldi	r19, 0x00	; 0
     790:	41 e0       	ldi	r20, 0x01	; 1
     792:	60 e0       	ldi	r22, 0x00	; 0
     794:	89 e0       	ldi	r24, 0x09	; 9
     796:	0e 94 21 03 	call	0x642	; 0x642 <LCD_Vid_Send_Custom_Char>
	LCD_Vid_Send_String("__");
     79a:	8a e7       	ldi	r24, 0x7A	; 122
     79c:	90 e0       	ldi	r25, 0x00	; 0
     79e:	0e 94 7a 02 	call	0x4f4	; 0x4f4 <LCD_Vid_Send_String>
	//_delay_ms(10);
	LCD_Vid_GotoXY(COL1,ROW1);
     7a2:	60 e0       	ldi	r22, 0x00	; 0
     7a4:	80 e0       	ldi	r24, 0x00	; 0
     7a6:	0e 94 16 03 	call	0x62c	; 0x62c <LCD_Vid_GotoXY>
	LCD_Vid_Send_String("______");
     7aa:	86 e7       	ldi	r24, 0x76	; 118
     7ac:	90 e0       	ldi	r25, 0x00	; 0
     7ae:	0e 94 7a 02 	call	0x4f4	; 0x4f4 <LCD_Vid_Send_String>
	LCD_Vid_Send_Custom_Char(COL7,ROW1,0,char1);
     7b2:	28 e6       	ldi	r18, 0x68	; 104
     7b4:	30 e0       	ldi	r19, 0x00	; 0
     7b6:	40 e0       	ldi	r20, 0x00	; 0
     7b8:	60 e0       	ldi	r22, 0x00	; 0
     7ba:	86 e0       	ldi	r24, 0x06	; 6
     7bc:	0e 94 21 03 	call	0x642	; 0x642 <LCD_Vid_Send_Custom_Char>
	LCD_Vid_Send_String("-");
     7c0:	88 e8       	ldi	r24, 0x88	; 136
     7c2:	90 e0       	ldi	r25, 0x00	; 0
     7c4:	0e 94 7a 02 	call	0x4f4	; 0x4f4 <LCD_Vid_Send_String>
	LCD_Vid_Send_Custom_Char(COL9,ROW1,1,char2);
     7c8:	20 e6       	ldi	r18, 0x60	; 96
     7ca:	30 e0       	ldi	r19, 0x00	; 0
     7cc:	41 e0       	ldi	r20, 0x01	; 1
     7ce:	60 e0       	ldi	r22, 0x00	; 0
     7d0:	88 e0       	ldi	r24, 0x08	; 8
     7d2:	0e 94 21 03 	call	0x642	; 0x642 <LCD_Vid_Send_Custom_Char>
	LCD_Vid_Send_String("___");
     7d6:	89 e7       	ldi	r24, 0x79	; 121
     7d8:	90 e0       	ldi	r25, 0x00	; 0
     7da:	0e 94 7a 02 	call	0x4f4	; 0x4f4 <LCD_Vid_Send_String>
	//_delay_ms(10);
	LCD_Vid_GotoXY(COL1,ROW1);
     7de:	60 e0       	ldi	r22, 0x00	; 0
     7e0:	80 e0       	ldi	r24, 0x00	; 0
     7e2:	0e 94 16 03 	call	0x62c	; 0x62c <LCD_Vid_GotoXY>
	LCD_Vid_Send_String("_____");
     7e6:	87 e7       	ldi	r24, 0x77	; 119
     7e8:	90 e0       	ldi	r25, 0x00	; 0
     7ea:	0e 94 7a 02 	call	0x4f4	; 0x4f4 <LCD_Vid_Send_String>
	LCD_Vid_Send_Custom_Char(COL6,ROW1,0,char1);
     7ee:	28 e6       	ldi	r18, 0x68	; 104
     7f0:	30 e0       	ldi	r19, 0x00	; 0
     7f2:	40 e0       	ldi	r20, 0x00	; 0
     7f4:	60 e0       	ldi	r22, 0x00	; 0
     7f6:	85 e0       	ldi	r24, 0x05	; 5
     7f8:	0e 94 21 03 	call	0x642	; 0x642 <LCD_Vid_Send_Custom_Char>
	LCD_Vid_Send_String("-");
     7fc:	88 e8       	ldi	r24, 0x88	; 136
     7fe:	90 e0       	ldi	r25, 0x00	; 0
     800:	0e 94 7a 02 	call	0x4f4	; 0x4f4 <LCD_Vid_Send_String>
	LCD_Vid_Send_Custom_Char(COL8,ROW1,1,char2);
     804:	20 e6       	ldi	r18, 0x60	; 96
     806:	30 e0       	ldi	r19, 0x00	; 0
     808:	41 e0       	ldi	r20, 0x01	; 1
     80a:	60 e0       	ldi	r22, 0x00	; 0
     80c:	87 e0       	ldi	r24, 0x07	; 7
     80e:	0e 94 21 03 	call	0x642	; 0x642 <LCD_Vid_Send_Custom_Char>
	LCD_Vid_Send_String("____");
     812:	88 e7       	ldi	r24, 0x78	; 120
     814:	90 e0       	ldi	r25, 0x00	; 0
     816:	0e 94 7a 02 	call	0x4f4	; 0x4f4 <LCD_Vid_Send_String>
	//_delay_ms(10);
	LCD_Vid_GotoXY(COL1,ROW1);
     81a:	60 e0       	ldi	r22, 0x00	; 0
     81c:	80 e0       	ldi	r24, 0x00	; 0
     81e:	0e 94 16 03 	call	0x62c	; 0x62c <LCD_Vid_GotoXY>
	LCD_Vid_Send_String("____");
     822:	88 e7       	ldi	r24, 0x78	; 120
     824:	90 e0       	ldi	r25, 0x00	; 0
     826:	0e 94 7a 02 	call	0x4f4	; 0x4f4 <LCD_Vid_Send_String>
	LCD_Vid_Send_Custom_Char(COL5,ROW1,0,char1);
     82a:	28 e6       	ldi	r18, 0x68	; 104
     82c:	30 e0       	ldi	r19, 0x00	; 0
     82e:	40 e0       	ldi	r20, 0x00	; 0
     830:	60 e0       	ldi	r22, 0x00	; 0
     832:	84 e0       	ldi	r24, 0x04	; 4
     834:	0e 94 21 03 	call	0x642	; 0x642 <LCD_Vid_Send_Custom_Char>
	LCD_Vid_Send_String("-");
     838:	88 e8       	ldi	r24, 0x88	; 136
     83a:	90 e0       	ldi	r25, 0x00	; 0
     83c:	0e 94 7a 02 	call	0x4f4	; 0x4f4 <LCD_Vid_Send_String>
	LCD_Vid_Send_Custom_Char(COL7,ROW1,1,char2);
     840:	20 e6       	ldi	r18, 0x60	; 96
     842:	30 e0       	ldi	r19, 0x00	; 0
     844:	41 e0       	ldi	r20, 0x01	; 1
     846:	60 e0       	ldi	r22, 0x00	; 0
     848:	86 e0       	ldi	r24, 0x06	; 6
     84a:	0e 94 21 03 	call	0x642	; 0x642 <LCD_Vid_Send_Custom_Char>
	LCD_Vid_Send_String("_____");
     84e:	87 e7       	ldi	r24, 0x77	; 119
     850:	90 e0       	ldi	r25, 0x00	; 0
     852:	0e 94 7a 02 	call	0x4f4	; 0x4f4 <LCD_Vid_Send_String>
	//_delay_ms(10);
	LCD_Vid_GotoXY(COL1,ROW1);
     856:	60 e0       	ldi	r22, 0x00	; 0
     858:	80 e0       	ldi	r24, 0x00	; 0
     85a:	0e 94 16 03 	call	0x62c	; 0x62c <LCD_Vid_GotoXY>
	LCD_Vid_Send_String("___");
     85e:	89 e7       	ldi	r24, 0x79	; 121
     860:	90 e0       	ldi	r25, 0x00	; 0
     862:	0e 94 7a 02 	call	0x4f4	; 0x4f4 <LCD_Vid_Send_String>
	LCD_Vid_Send_Custom_Char(COL4,ROW1,0,char1);
     866:	28 e6       	ldi	r18, 0x68	; 104
     868:	30 e0       	ldi	r19, 0x00	; 0
     86a:	40 e0       	ldi	r20, 0x00	; 0
     86c:	60 e0       	ldi	r22, 0x00	; 0
     86e:	83 e0       	ldi	r24, 0x03	; 3
     870:	0e 94 21 03 	call	0x642	; 0x642 <LCD_Vid_Send_Custom_Char>
	LCD_Vid_Send_String("-");
     874:	88 e8       	ldi	r24, 0x88	; 136
     876:	90 e0       	ldi	r25, 0x00	; 0
     878:	0e 94 7a 02 	call	0x4f4	; 0x4f4 <LCD_Vid_Send_String>
	LCD_Vid_Send_Custom_Char(COL6,ROW1,1,char2);
     87c:	20 e6       	ldi	r18, 0x60	; 96
     87e:	30 e0       	ldi	r19, 0x00	; 0
     880:	41 e0       	ldi	r20, 0x01	; 1
     882:	60 e0       	ldi	r22, 0x00	; 0
     884:	85 e0       	ldi	r24, 0x05	; 5
     886:	0e 94 21 03 	call	0x642	; 0x642 <LCD_Vid_Send_Custom_Char>
	LCD_Vid_Send_String("______");
     88a:	86 e7       	ldi	r24, 0x76	; 118
     88c:	90 e0       	ldi	r25, 0x00	; 0
     88e:	0e 94 7a 02 	call	0x4f4	; 0x4f4 <LCD_Vid_Send_String>
	//_delay_ms(10);
	LCD_Vid_GotoXY(COL1,ROW1);
     892:	60 e0       	ldi	r22, 0x00	; 0
     894:	80 e0       	ldi	r24, 0x00	; 0
     896:	0e 94 16 03 	call	0x62c	; 0x62c <LCD_Vid_GotoXY>
	LCD_Vid_Send_String("__");
     89a:	8a e7       	ldi	r24, 0x7A	; 122
     89c:	90 e0       	ldi	r25, 0x00	; 0
     89e:	0e 94 7a 02 	call	0x4f4	; 0x4f4 <LCD_Vid_Send_String>
	LCD_Vid_Send_Custom_Char(COL3,ROW1,0,char1);
     8a2:	28 e6       	ldi	r18, 0x68	; 104
     8a4:	30 e0       	ldi	r19, 0x00	; 0
     8a6:	40 e0       	ldi	r20, 0x00	; 0
     8a8:	60 e0       	ldi	r22, 0x00	; 0
     8aa:	82 e0       	ldi	r24, 0x02	; 2
     8ac:	0e 94 21 03 	call	0x642	; 0x642 <LCD_Vid_Send_Custom_Char>
	LCD_Vid_Send_String("-");
     8b0:	88 e8       	ldi	r24, 0x88	; 136
     8b2:	90 e0       	ldi	r25, 0x00	; 0
     8b4:	0e 94 7a 02 	call	0x4f4	; 0x4f4 <LCD_Vid_Send_String>
	LCD_Vid_Send_Custom_Char(COL5,ROW1,1,char2);
     8b8:	20 e6       	ldi	r18, 0x60	; 96
     8ba:	30 e0       	ldi	r19, 0x00	; 0
     8bc:	41 e0       	ldi	r20, 0x01	; 1
     8be:	60 e0       	ldi	r22, 0x00	; 0
     8c0:	84 e0       	ldi	r24, 0x04	; 4
     8c2:	0e 94 21 03 	call	0x642	; 0x642 <LCD_Vid_Send_Custom_Char>
	LCD_Vid_Send_String("_______");
     8c6:	85 e7       	ldi	r24, 0x75	; 117
     8c8:	90 e0       	ldi	r25, 0x00	; 0
     8ca:	0e 94 7a 02 	call	0x4f4	; 0x4f4 <LCD_Vid_Send_String>
	//_delay_ms(10);
	LCD_Vid_GotoXY(COL1,ROW1);
     8ce:	60 e0       	ldi	r22, 0x00	; 0
     8d0:	80 e0       	ldi	r24, 0x00	; 0
     8d2:	0e 94 16 03 	call	0x62c	; 0x62c <LCD_Vid_GotoXY>
	LCD_Vid_Send_String("_");
     8d6:	8b e7       	ldi	r24, 0x7B	; 123
     8d8:	90 e0       	ldi	r25, 0x00	; 0
     8da:	0e 94 7a 02 	call	0x4f4	; 0x4f4 <LCD_Vid_Send_String>
	LCD_Vid_Send_Custom_Char(COL2,ROW1,0,char1);
     8de:	28 e6       	ldi	r18, 0x68	; 104
     8e0:	30 e0       	ldi	r19, 0x00	; 0
     8e2:	40 e0       	ldi	r20, 0x00	; 0
     8e4:	60 e0       	ldi	r22, 0x00	; 0
     8e6:	81 e0       	ldi	r24, 0x01	; 1
     8e8:	0e 94 21 03 	call	0x642	; 0x642 <LCD_Vid_Send_Custom_Char>
	LCD_Vid_Send_String("-");
     8ec:	88 e8       	ldi	r24, 0x88	; 136
     8ee:	90 e0       	ldi	r25, 0x00	; 0
     8f0:	0e 94 7a 02 	call	0x4f4	; 0x4f4 <LCD_Vid_Send_String>
	LCD_Vid_Send_Custom_Char(COL4,ROW1,1,char2);
     8f4:	20 e6       	ldi	r18, 0x60	; 96
     8f6:	30 e0       	ldi	r19, 0x00	; 0
     8f8:	41 e0       	ldi	r20, 0x01	; 1
     8fa:	60 e0       	ldi	r22, 0x00	; 0
     8fc:	83 e0       	ldi	r24, 0x03	; 3
     8fe:	0e 94 21 03 	call	0x642	; 0x642 <LCD_Vid_Send_Custom_Char>
	LCD_Vid_Send_String("________");
     902:	84 e7       	ldi	r24, 0x74	; 116
     904:	90 e0       	ldi	r25, 0x00	; 0
     906:	0e 94 7a 02 	call	0x4f4	; 0x4f4 <LCD_Vid_Send_String>
	//_delay_ms(10);
	LCD_Vid_GotoXY(COL1,ROW1);
     90a:	60 e0       	ldi	r22, 0x00	; 0
     90c:	80 e0       	ldi	r24, 0x00	; 0
     90e:	0e 94 16 03 	call	0x62c	; 0x62c <LCD_Vid_GotoXY>
	LCD_Vid_Send_Custom_Char(COL1,ROW1,0,char1);
     912:	28 e6       	ldi	r18, 0x68	; 104
     914:	30 e0       	ldi	r19, 0x00	; 0
     916:	40 e0       	ldi	r20, 0x00	; 0
     918:	60 e0       	ldi	r22, 0x00	; 0
     91a:	80 e0       	ldi	r24, 0x00	; 0
     91c:	0e 94 21 03 	call	0x642	; 0x642 <LCD_Vid_Send_Custom_Char>
	LCD_Vid_Send_String("-");
     920:	88 e8       	ldi	r24, 0x88	; 136
     922:	90 e0       	ldi	r25, 0x00	; 0
     924:	0e 94 7a 02 	call	0x4f4	; 0x4f4 <LCD_Vid_Send_String>
	LCD_Vid_Send_Custom_Char(COL3,ROW1,1,char2);
     928:	20 e6       	ldi	r18, 0x60	; 96
     92a:	30 e0       	ldi	r19, 0x00	; 0
     92c:	41 e0       	ldi	r20, 0x01	; 1
     92e:	60 e0       	ldi	r22, 0x00	; 0
     930:	82 e0       	ldi	r24, 0x02	; 2
     932:	0e 94 21 03 	call	0x642	; 0x642 <LCD_Vid_Send_Custom_Char>
	LCD_Vid_Send_String("_________");
     936:	83 e7       	ldi	r24, 0x73	; 115
     938:	90 e0       	ldi	r25, 0x00	; 0
     93a:	0e 94 7a 02 	call	0x4f4	; 0x4f4 <LCD_Vid_Send_String>
     93e:	08 95       	ret

00000940 <lcd_20>:
	//_delay_ms(10);
}
void lcd_20(){
	LCD_Vid_GotoXY(COL1,ROW1);
     940:	60 e0       	ldi	r22, 0x00	; 0
     942:	80 e0       	ldi	r24, 0x00	; 0
     944:	0e 94 16 03 	call	0x62c	; 0x62c <LCD_Vid_GotoXY>
	LCD_Vid_Send_String("________");
     948:	84 e7       	ldi	r24, 0x74	; 116
     94a:	90 e0       	ldi	r25, 0x00	; 0
     94c:	0e 94 7a 02 	call	0x4f4	; 0x4f4 <LCD_Vid_Send_String>
	LCD_Vid_Send_Custom_Char(COL9,ROW1,0,char1);
     950:	28 e6       	ldi	r18, 0x68	; 104
     952:	30 e0       	ldi	r19, 0x00	; 0
     954:	40 e0       	ldi	r20, 0x00	; 0
     956:	60 e0       	ldi	r22, 0x00	; 0
     958:	88 e0       	ldi	r24, 0x08	; 8
     95a:	0e 94 21 03 	call	0x642	; 0x642 <LCD_Vid_Send_Custom_Char>
	LCD_Vid_Send_String("--");
     95e:	87 e8       	ldi	r24, 0x87	; 135
     960:	90 e0       	ldi	r25, 0x00	; 0
     962:	0e 94 7a 02 	call	0x4f4	; 0x4f4 <LCD_Vid_Send_String>
	LCD_Vid_Send_Custom_Char(COL12,ROW1,1,char2);
     966:	20 e6       	ldi	r18, 0x60	; 96
     968:	30 e0       	ldi	r19, 0x00	; 0
     96a:	41 e0       	ldi	r20, 0x01	; 1
     96c:	60 e0       	ldi	r22, 0x00	; 0
     96e:	8b e0       	ldi	r24, 0x0B	; 11
     970:	0e 94 21 03 	call	0x642	; 0x642 <LCD_Vid_Send_Custom_Char>
	//_delay_ms(10);
	LCD_Vid_GotoXY(COL1,ROW1);
     974:	60 e0       	ldi	r22, 0x00	; 0
     976:	80 e0       	ldi	r24, 0x00	; 0
     978:	0e 94 16 03 	call	0x62c	; 0x62c <LCD_Vid_GotoXY>
	LCD_Vid_Send_String("_______");
     97c:	85 e7       	ldi	r24, 0x75	; 117
     97e:	90 e0       	ldi	r25, 0x00	; 0
     980:	0e 94 7a 02 	call	0x4f4	; 0x4f4 <LCD_Vid_Send_String>
	LCD_Vid_Send_Custom_Char(COL8,ROW1,0,char1);
     984:	28 e6       	ldi	r18, 0x68	; 104
     986:	30 e0       	ldi	r19, 0x00	; 0
     988:	40 e0       	ldi	r20, 0x00	; 0
     98a:	60 e0       	ldi	r22, 0x00	; 0
     98c:	87 e0       	ldi	r24, 0x07	; 7
     98e:	0e 94 21 03 	call	0x642	; 0x642 <LCD_Vid_Send_Custom_Char>
	LCD_Vid_Send_String("--");
     992:	87 e8       	ldi	r24, 0x87	; 135
     994:	90 e0       	ldi	r25, 0x00	; 0
     996:	0e 94 7a 02 	call	0x4f4	; 0x4f4 <LCD_Vid_Send_String>
	LCD_Vid_Send_Custom_Char(COL11,ROW1,1,char2);
     99a:	20 e6       	ldi	r18, 0x60	; 96
     99c:	30 e0       	ldi	r19, 0x00	; 0
     99e:	41 e0       	ldi	r20, 0x01	; 1
     9a0:	60 e0       	ldi	r22, 0x00	; 0
     9a2:	8a e0       	ldi	r24, 0x0A	; 10
     9a4:	0e 94 21 03 	call	0x642	; 0x642 <LCD_Vid_Send_Custom_Char>
	LCD_Vid_Send_String("_");
     9a8:	8b e7       	ldi	r24, 0x7B	; 123
     9aa:	90 e0       	ldi	r25, 0x00	; 0
     9ac:	0e 94 7a 02 	call	0x4f4	; 0x4f4 <LCD_Vid_Send_String>
	//_delay_ms(10);
	LCD_Vid_GotoXY(COL1,ROW1);
     9b0:	60 e0       	ldi	r22, 0x00	; 0
     9b2:	80 e0       	ldi	r24, 0x00	; 0
     9b4:	0e 94 16 03 	call	0x62c	; 0x62c <LCD_Vid_GotoXY>
	LCD_Vid_Send_String("______");
     9b8:	86 e7       	ldi	r24, 0x76	; 118
     9ba:	90 e0       	ldi	r25, 0x00	; 0
     9bc:	0e 94 7a 02 	call	0x4f4	; 0x4f4 <LCD_Vid_Send_String>
	LCD_Vid_Send_Custom_Char(COL7,ROW1,0,char1);
     9c0:	28 e6       	ldi	r18, 0x68	; 104
     9c2:	30 e0       	ldi	r19, 0x00	; 0
     9c4:	40 e0       	ldi	r20, 0x00	; 0
     9c6:	60 e0       	ldi	r22, 0x00	; 0
     9c8:	86 e0       	ldi	r24, 0x06	; 6
     9ca:	0e 94 21 03 	call	0x642	; 0x642 <LCD_Vid_Send_Custom_Char>
	LCD_Vid_Send_String("--");
     9ce:	87 e8       	ldi	r24, 0x87	; 135
     9d0:	90 e0       	ldi	r25, 0x00	; 0
     9d2:	0e 94 7a 02 	call	0x4f4	; 0x4f4 <LCD_Vid_Send_String>
	LCD_Vid_Send_Custom_Char(COL10,ROW1,1,char2);
     9d6:	20 e6       	ldi	r18, 0x60	; 96
     9d8:	30 e0       	ldi	r19, 0x00	; 0
     9da:	41 e0       	ldi	r20, 0x01	; 1
     9dc:	60 e0       	ldi	r22, 0x00	; 0
     9de:	89 e0       	ldi	r24, 0x09	; 9
     9e0:	0e 94 21 03 	call	0x642	; 0x642 <LCD_Vid_Send_Custom_Char>
	LCD_Vid_Send_String("__");
     9e4:	8a e7       	ldi	r24, 0x7A	; 122
     9e6:	90 e0       	ldi	r25, 0x00	; 0
     9e8:	0e 94 7a 02 	call	0x4f4	; 0x4f4 <LCD_Vid_Send_String>
	//_delay_ms(10);
	LCD_Vid_GotoXY(COL1,ROW1);
     9ec:	60 e0       	ldi	r22, 0x00	; 0
     9ee:	80 e0       	ldi	r24, 0x00	; 0
     9f0:	0e 94 16 03 	call	0x62c	; 0x62c <LCD_Vid_GotoXY>
	LCD_Vid_Send_String("_____");
     9f4:	87 e7       	ldi	r24, 0x77	; 119
     9f6:	90 e0       	ldi	r25, 0x00	; 0
     9f8:	0e 94 7a 02 	call	0x4f4	; 0x4f4 <LCD_Vid_Send_String>
	LCD_Vid_Send_Custom_Char(COL6,ROW1,0,char1);
     9fc:	28 e6       	ldi	r18, 0x68	; 104
     9fe:	30 e0       	ldi	r19, 0x00	; 0
     a00:	40 e0       	ldi	r20, 0x00	; 0
     a02:	60 e0       	ldi	r22, 0x00	; 0
     a04:	85 e0       	ldi	r24, 0x05	; 5
     a06:	0e 94 21 03 	call	0x642	; 0x642 <LCD_Vid_Send_Custom_Char>
	LCD_Vid_Send_String("--");
     a0a:	87 e8       	ldi	r24, 0x87	; 135
     a0c:	90 e0       	ldi	r25, 0x00	; 0
     a0e:	0e 94 7a 02 	call	0x4f4	; 0x4f4 <LCD_Vid_Send_String>
	LCD_Vid_Send_Custom_Char(COL9,ROW1,1,char2);
     a12:	20 e6       	ldi	r18, 0x60	; 96
     a14:	30 e0       	ldi	r19, 0x00	; 0
     a16:	41 e0       	ldi	r20, 0x01	; 1
     a18:	60 e0       	ldi	r22, 0x00	; 0
     a1a:	88 e0       	ldi	r24, 0x08	; 8
     a1c:	0e 94 21 03 	call	0x642	; 0x642 <LCD_Vid_Send_Custom_Char>
	LCD_Vid_Send_String("___");
     a20:	89 e7       	ldi	r24, 0x79	; 121
     a22:	90 e0       	ldi	r25, 0x00	; 0
     a24:	0e 94 7a 02 	call	0x4f4	; 0x4f4 <LCD_Vid_Send_String>
	//_delay_ms(10);
	LCD_Vid_GotoXY(COL1,ROW1);
     a28:	60 e0       	ldi	r22, 0x00	; 0
     a2a:	80 e0       	ldi	r24, 0x00	; 0
     a2c:	0e 94 16 03 	call	0x62c	; 0x62c <LCD_Vid_GotoXY>
	LCD_Vid_Send_String("____");
     a30:	88 e7       	ldi	r24, 0x78	; 120
     a32:	90 e0       	ldi	r25, 0x00	; 0
     a34:	0e 94 7a 02 	call	0x4f4	; 0x4f4 <LCD_Vid_Send_String>
	LCD_Vid_Send_Custom_Char(COL5,ROW1,0,char1);
     a38:	28 e6       	ldi	r18, 0x68	; 104
     a3a:	30 e0       	ldi	r19, 0x00	; 0
     a3c:	40 e0       	ldi	r20, 0x00	; 0
     a3e:	60 e0       	ldi	r22, 0x00	; 0
     a40:	84 e0       	ldi	r24, 0x04	; 4
     a42:	0e 94 21 03 	call	0x642	; 0x642 <LCD_Vid_Send_Custom_Char>
	LCD_Vid_Send_String("--");
     a46:	87 e8       	ldi	r24, 0x87	; 135
     a48:	90 e0       	ldi	r25, 0x00	; 0
     a4a:	0e 94 7a 02 	call	0x4f4	; 0x4f4 <LCD_Vid_Send_String>
	LCD_Vid_Send_Custom_Char(COL8,ROW1,1,char2);
     a4e:	20 e6       	ldi	r18, 0x60	; 96
     a50:	30 e0       	ldi	r19, 0x00	; 0
     a52:	41 e0       	ldi	r20, 0x01	; 1
     a54:	60 e0       	ldi	r22, 0x00	; 0
     a56:	87 e0       	ldi	r24, 0x07	; 7
     a58:	0e 94 21 03 	call	0x642	; 0x642 <LCD_Vid_Send_Custom_Char>
	LCD_Vid_Send_String("____");
     a5c:	88 e7       	ldi	r24, 0x78	; 120
     a5e:	90 e0       	ldi	r25, 0x00	; 0
     a60:	0e 94 7a 02 	call	0x4f4	; 0x4f4 <LCD_Vid_Send_String>
	//_delay_ms(10);
	LCD_Vid_GotoXY(COL1,ROW1);
     a64:	60 e0       	ldi	r22, 0x00	; 0
     a66:	80 e0       	ldi	r24, 0x00	; 0
     a68:	0e 94 16 03 	call	0x62c	; 0x62c <LCD_Vid_GotoXY>
	LCD_Vid_Send_String("___");
     a6c:	89 e7       	ldi	r24, 0x79	; 121
     a6e:	90 e0       	ldi	r25, 0x00	; 0
     a70:	0e 94 7a 02 	call	0x4f4	; 0x4f4 <LCD_Vid_Send_String>
	LCD_Vid_Send_Custom_Char(COL4,ROW1,0,char1);
     a74:	28 e6       	ldi	r18, 0x68	; 104
     a76:	30 e0       	ldi	r19, 0x00	; 0
     a78:	40 e0       	ldi	r20, 0x00	; 0
     a7a:	60 e0       	ldi	r22, 0x00	; 0
     a7c:	83 e0       	ldi	r24, 0x03	; 3
     a7e:	0e 94 21 03 	call	0x642	; 0x642 <LCD_Vid_Send_Custom_Char>
	LCD_Vid_Send_String("--");
     a82:	87 e8       	ldi	r24, 0x87	; 135
     a84:	90 e0       	ldi	r25, 0x00	; 0
     a86:	0e 94 7a 02 	call	0x4f4	; 0x4f4 <LCD_Vid_Send_String>
	LCD_Vid_Send_Custom_Char(COL7,ROW1,1,char2);
     a8a:	20 e6       	ldi	r18, 0x60	; 96
     a8c:	30 e0       	ldi	r19, 0x00	; 0
     a8e:	41 e0       	ldi	r20, 0x01	; 1
     a90:	60 e0       	ldi	r22, 0x00	; 0
     a92:	86 e0       	ldi	r24, 0x06	; 6
     a94:	0e 94 21 03 	call	0x642	; 0x642 <LCD_Vid_Send_Custom_Char>
	LCD_Vid_Send_String("_____");
     a98:	87 e7       	ldi	r24, 0x77	; 119
     a9a:	90 e0       	ldi	r25, 0x00	; 0
     a9c:	0e 94 7a 02 	call	0x4f4	; 0x4f4 <LCD_Vid_Send_String>
	//_delay_ms(10);
	LCD_Vid_GotoXY(COL1,ROW1);
     aa0:	60 e0       	ldi	r22, 0x00	; 0
     aa2:	80 e0       	ldi	r24, 0x00	; 0
     aa4:	0e 94 16 03 	call	0x62c	; 0x62c <LCD_Vid_GotoXY>
	LCD_Vid_Send_String("__");
     aa8:	8a e7       	ldi	r24, 0x7A	; 122
     aaa:	90 e0       	ldi	r25, 0x00	; 0
     aac:	0e 94 7a 02 	call	0x4f4	; 0x4f4 <LCD_Vid_Send_String>
	LCD_Vid_Send_Custom_Char(COL3,ROW1,0,char1);
     ab0:	28 e6       	ldi	r18, 0x68	; 104
     ab2:	30 e0       	ldi	r19, 0x00	; 0
     ab4:	40 e0       	ldi	r20, 0x00	; 0
     ab6:	60 e0       	ldi	r22, 0x00	; 0
     ab8:	82 e0       	ldi	r24, 0x02	; 2
     aba:	0e 94 21 03 	call	0x642	; 0x642 <LCD_Vid_Send_Custom_Char>
	LCD_Vid_Send_String("--");
     abe:	87 e8       	ldi	r24, 0x87	; 135
     ac0:	90 e0       	ldi	r25, 0x00	; 0
     ac2:	0e 94 7a 02 	call	0x4f4	; 0x4f4 <LCD_Vid_Send_String>
	LCD_Vid_Send_Custom_Char(COL6,ROW1,1,char2);
     ac6:	20 e6       	ldi	r18, 0x60	; 96
     ac8:	30 e0       	ldi	r19, 0x00	; 0
     aca:	41 e0       	ldi	r20, 0x01	; 1
     acc:	60 e0       	ldi	r22, 0x00	; 0
     ace:	85 e0       	ldi	r24, 0x05	; 5
     ad0:	0e 94 21 03 	call	0x642	; 0x642 <LCD_Vid_Send_Custom_Char>
	LCD_Vid_Send_String("______");
     ad4:	86 e7       	ldi	r24, 0x76	; 118
     ad6:	90 e0       	ldi	r25, 0x00	; 0
     ad8:	0e 94 7a 02 	call	0x4f4	; 0x4f4 <LCD_Vid_Send_String>
	//_delay_ms(10);
	LCD_Vid_GotoXY(COL1,ROW1);
     adc:	60 e0       	ldi	r22, 0x00	; 0
     ade:	80 e0       	ldi	r24, 0x00	; 0
     ae0:	0e 94 16 03 	call	0x62c	; 0x62c <LCD_Vid_GotoXY>
	LCD_Vid_Send_String("_");
     ae4:	8b e7       	ldi	r24, 0x7B	; 123
     ae6:	90 e0       	ldi	r25, 0x00	; 0
     ae8:	0e 94 7a 02 	call	0x4f4	; 0x4f4 <LCD_Vid_Send_String>
	LCD_Vid_Send_Custom_Char(COL2,ROW1,0,char1);
     aec:	28 e6       	ldi	r18, 0x68	; 104
     aee:	30 e0       	ldi	r19, 0x00	; 0
     af0:	40 e0       	ldi	r20, 0x00	; 0
     af2:	60 e0       	ldi	r22, 0x00	; 0
     af4:	81 e0       	ldi	r24, 0x01	; 1
     af6:	0e 94 21 03 	call	0x642	; 0x642 <LCD_Vid_Send_Custom_Char>
	LCD_Vid_Send_String("--");
     afa:	87 e8       	ldi	r24, 0x87	; 135
     afc:	90 e0       	ldi	r25, 0x00	; 0
     afe:	0e 94 7a 02 	call	0x4f4	; 0x4f4 <LCD_Vid_Send_String>
	LCD_Vid_Send_Custom_Char(COL5,ROW1,1,char2);
     b02:	20 e6       	ldi	r18, 0x60	; 96
     b04:	30 e0       	ldi	r19, 0x00	; 0
     b06:	41 e0       	ldi	r20, 0x01	; 1
     b08:	60 e0       	ldi	r22, 0x00	; 0
     b0a:	84 e0       	ldi	r24, 0x04	; 4
     b0c:	0e 94 21 03 	call	0x642	; 0x642 <LCD_Vid_Send_Custom_Char>
	LCD_Vid_Send_String("_______");
     b10:	85 e7       	ldi	r24, 0x75	; 117
     b12:	90 e0       	ldi	r25, 0x00	; 0
     b14:	0e 94 7a 02 	call	0x4f4	; 0x4f4 <LCD_Vid_Send_String>
	//_delay_ms(10);
	LCD_Vid_Send_Custom_Char(COL1,ROW1,0,char1);
     b18:	28 e6       	ldi	r18, 0x68	; 104
     b1a:	30 e0       	ldi	r19, 0x00	; 0
     b1c:	40 e0       	ldi	r20, 0x00	; 0
     b1e:	60 e0       	ldi	r22, 0x00	; 0
     b20:	80 e0       	ldi	r24, 0x00	; 0
     b22:	0e 94 21 03 	call	0x642	; 0x642 <LCD_Vid_Send_Custom_Char>
	LCD_Vid_Send_String("--");
     b26:	87 e8       	ldi	r24, 0x87	; 135
     b28:	90 e0       	ldi	r25, 0x00	; 0
     b2a:	0e 94 7a 02 	call	0x4f4	; 0x4f4 <LCD_Vid_Send_String>
	LCD_Vid_Send_Custom_Char(COL4,ROW1,1,char2);
     b2e:	20 e6       	ldi	r18, 0x60	; 96
     b30:	30 e0       	ldi	r19, 0x00	; 0
     b32:	41 e0       	ldi	r20, 0x01	; 1
     b34:	60 e0       	ldi	r22, 0x00	; 0
     b36:	83 e0       	ldi	r24, 0x03	; 3
     b38:	0e 94 21 03 	call	0x642	; 0x642 <LCD_Vid_Send_Custom_Char>
	LCD_Vid_Send_String("________");
     b3c:	84 e7       	ldi	r24, 0x74	; 116
     b3e:	90 e0       	ldi	r25, 0x00	; 0
     b40:	0e 94 7a 02 	call	0x4f4	; 0x4f4 <LCD_Vid_Send_String>
	//_delay_ms(10);
	LCD_Vid_GotoXY(COL1,ROW1);
     b44:	60 e0       	ldi	r22, 0x00	; 0
     b46:	80 e0       	ldi	r24, 0x00	; 0
     b48:	0e 94 16 03 	call	0x62c	; 0x62c <LCD_Vid_GotoXY>
	LCD_Vid_Send_String("--");
     b4c:	87 e8       	ldi	r24, 0x87	; 135
     b4e:	90 e0       	ldi	r25, 0x00	; 0
     b50:	0e 94 7a 02 	call	0x4f4	; 0x4f4 <LCD_Vid_Send_String>
	LCD_Vid_Send_Custom_Char(COL3,ROW1,1,char2);
     b54:	20 e6       	ldi	r18, 0x60	; 96
     b56:	30 e0       	ldi	r19, 0x00	; 0
     b58:	41 e0       	ldi	r20, 0x01	; 1
     b5a:	60 e0       	ldi	r22, 0x00	; 0
     b5c:	82 e0       	ldi	r24, 0x02	; 2
     b5e:	0e 94 21 03 	call	0x642	; 0x642 <LCD_Vid_Send_Custom_Char>
	LCD_Vid_Send_String("________");
     b62:	84 e7       	ldi	r24, 0x74	; 116
     b64:	90 e0       	ldi	r25, 0x00	; 0
     b66:	0e 94 7a 02 	call	0x4f4	; 0x4f4 <LCD_Vid_Send_String>
	LCD_Vid_Send_Custom_Char(COL12,ROW1,0,char1);
     b6a:	28 e6       	ldi	r18, 0x68	; 104
     b6c:	30 e0       	ldi	r19, 0x00	; 0
     b6e:	40 e0       	ldi	r20, 0x00	; 0
     b70:	60 e0       	ldi	r22, 0x00	; 0
     b72:	8b e0       	ldi	r24, 0x0B	; 11
     b74:	0e 94 21 03 	call	0x642	; 0x642 <LCD_Vid_Send_Custom_Char>
	//_delay_ms(10);
	LCD_Vid_GotoXY(COL1,ROW1);
     b78:	60 e0       	ldi	r22, 0x00	; 0
     b7a:	80 e0       	ldi	r24, 0x00	; 0
     b7c:	0e 94 16 03 	call	0x62c	; 0x62c <LCD_Vid_GotoXY>
	LCD_Vid_Send_String("-");
     b80:	88 e8       	ldi	r24, 0x88	; 136
     b82:	90 e0       	ldi	r25, 0x00	; 0
     b84:	0e 94 7a 02 	call	0x4f4	; 0x4f4 <LCD_Vid_Send_String>
	LCD_Vid_Send_Custom_Char(COL2,ROW1,1,char2);
     b88:	20 e6       	ldi	r18, 0x60	; 96
     b8a:	30 e0       	ldi	r19, 0x00	; 0
     b8c:	41 e0       	ldi	r20, 0x01	; 1
     b8e:	60 e0       	ldi	r22, 0x00	; 0
     b90:	81 e0       	ldi	r24, 0x01	; 1
     b92:	0e 94 21 03 	call	0x642	; 0x642 <LCD_Vid_Send_Custom_Char>
	LCD_Vid_Send_String("________");
     b96:	84 e7       	ldi	r24, 0x74	; 116
     b98:	90 e0       	ldi	r25, 0x00	; 0
     b9a:	0e 94 7a 02 	call	0x4f4	; 0x4f4 <LCD_Vid_Send_String>
	LCD_Vid_Send_Custom_Char(COL11,ROW1,0,char1);
     b9e:	28 e6       	ldi	r18, 0x68	; 104
     ba0:	30 e0       	ldi	r19, 0x00	; 0
     ba2:	40 e0       	ldi	r20, 0x00	; 0
     ba4:	60 e0       	ldi	r22, 0x00	; 0
     ba6:	8a e0       	ldi	r24, 0x0A	; 10
     ba8:	0e 94 21 03 	call	0x642	; 0x642 <LCD_Vid_Send_Custom_Char>
	LCD_Vid_Send_String("-");
     bac:	88 e8       	ldi	r24, 0x88	; 136
     bae:	90 e0       	ldi	r25, 0x00	; 0
     bb0:	0e 94 7a 02 	call	0x4f4	; 0x4f4 <LCD_Vid_Send_String>
	//_delay_ms(10);
	LCD_Vid_Send_Custom_Char(COL1,ROW1,1,char2);
     bb4:	20 e6       	ldi	r18, 0x60	; 96
     bb6:	30 e0       	ldi	r19, 0x00	; 0
     bb8:	41 e0       	ldi	r20, 0x01	; 1
     bba:	60 e0       	ldi	r22, 0x00	; 0
     bbc:	80 e0       	ldi	r24, 0x00	; 0
     bbe:	0e 94 21 03 	call	0x642	; 0x642 <LCD_Vid_Send_Custom_Char>
	LCD_Vid_Send_String("________");
     bc2:	84 e7       	ldi	r24, 0x74	; 116
     bc4:	90 e0       	ldi	r25, 0x00	; 0
     bc6:	0e 94 7a 02 	call	0x4f4	; 0x4f4 <LCD_Vid_Send_String>
	LCD_Vid_Send_Custom_Char(COL10,ROW1,0,char1);
     bca:	28 e6       	ldi	r18, 0x68	; 104
     bcc:	30 e0       	ldi	r19, 0x00	; 0
     bce:	40 e0       	ldi	r20, 0x00	; 0
     bd0:	60 e0       	ldi	r22, 0x00	; 0
     bd2:	89 e0       	ldi	r24, 0x09	; 9
     bd4:	0e 94 21 03 	call	0x642	; 0x642 <LCD_Vid_Send_Custom_Char>
	LCD_Vid_Send_String("--");
     bd8:	87 e8       	ldi	r24, 0x87	; 135
     bda:	90 e0       	ldi	r25, 0x00	; 0
     bdc:	0e 94 7a 02 	call	0x4f4	; 0x4f4 <LCD_Vid_Send_String>
     be0:	08 95       	ret

00000be2 <lcd_30>:
	//_delay_ms(10);
}
void lcd_30(){
	LCD_Vid_GotoXY(COL1,ROW1);
     be2:	60 e0       	ldi	r22, 0x00	; 0
     be4:	80 e0       	ldi	r24, 0x00	; 0
     be6:	0e 94 16 03 	call	0x62c	; 0x62c <LCD_Vid_GotoXY>
	LCD_Vid_Send_String("_______");
     bea:	85 e7       	ldi	r24, 0x75	; 117
     bec:	90 e0       	ldi	r25, 0x00	; 0
     bee:	0e 94 7a 02 	call	0x4f4	; 0x4f4 <LCD_Vid_Send_String>
	LCD_Vid_Send_Custom_Char(COL8,ROW1,0,char1);
     bf2:	28 e6       	ldi	r18, 0x68	; 104
     bf4:	30 e0       	ldi	r19, 0x00	; 0
     bf6:	40 e0       	ldi	r20, 0x00	; 0
     bf8:	60 e0       	ldi	r22, 0x00	; 0
     bfa:	87 e0       	ldi	r24, 0x07	; 7
     bfc:	0e 94 21 03 	call	0x642	; 0x642 <LCD_Vid_Send_Custom_Char>
	LCD_Vid_Send_String("---");
     c00:	86 e8       	ldi	r24, 0x86	; 134
     c02:	90 e0       	ldi	r25, 0x00	; 0
     c04:	0e 94 7a 02 	call	0x4f4	; 0x4f4 <LCD_Vid_Send_String>
	LCD_Vid_Send_Custom_Char(COL12,ROW1,1,char2);
     c08:	20 e6       	ldi	r18, 0x60	; 96
     c0a:	30 e0       	ldi	r19, 0x00	; 0
     c0c:	41 e0       	ldi	r20, 0x01	; 1
     c0e:	60 e0       	ldi	r22, 0x00	; 0
     c10:	8b e0       	ldi	r24, 0x0B	; 11
     c12:	0e 94 21 03 	call	0x642	; 0x642 <LCD_Vid_Send_Custom_Char>
	//_delay_ms(10);
	LCD_Vid_GotoXY(COL1,ROW1);
     c16:	60 e0       	ldi	r22, 0x00	; 0
     c18:	80 e0       	ldi	r24, 0x00	; 0
     c1a:	0e 94 16 03 	call	0x62c	; 0x62c <LCD_Vid_GotoXY>
	LCD_Vid_Send_String("______");
     c1e:	86 e7       	ldi	r24, 0x76	; 118
     c20:	90 e0       	ldi	r25, 0x00	; 0
     c22:	0e 94 7a 02 	call	0x4f4	; 0x4f4 <LCD_Vid_Send_String>
	LCD_Vid_Send_Custom_Char(COL7,ROW1,0,char1);
     c26:	28 e6       	ldi	r18, 0x68	; 104
     c28:	30 e0       	ldi	r19, 0x00	; 0
     c2a:	40 e0       	ldi	r20, 0x00	; 0
     c2c:	60 e0       	ldi	r22, 0x00	; 0
     c2e:	86 e0       	ldi	r24, 0x06	; 6
     c30:	0e 94 21 03 	call	0x642	; 0x642 <LCD_Vid_Send_Custom_Char>
	LCD_Vid_Send_String("---");
     c34:	86 e8       	ldi	r24, 0x86	; 134
     c36:	90 e0       	ldi	r25, 0x00	; 0
     c38:	0e 94 7a 02 	call	0x4f4	; 0x4f4 <LCD_Vid_Send_String>
	LCD_Vid_Send_Custom_Char(COL11,ROW1,1,char2);
     c3c:	20 e6       	ldi	r18, 0x60	; 96
     c3e:	30 e0       	ldi	r19, 0x00	; 0
     c40:	41 e0       	ldi	r20, 0x01	; 1
     c42:	60 e0       	ldi	r22, 0x00	; 0
     c44:	8a e0       	ldi	r24, 0x0A	; 10
     c46:	0e 94 21 03 	call	0x642	; 0x642 <LCD_Vid_Send_Custom_Char>
	LCD_Vid_Send_String("_");
     c4a:	8b e7       	ldi	r24, 0x7B	; 123
     c4c:	90 e0       	ldi	r25, 0x00	; 0
     c4e:	0e 94 7a 02 	call	0x4f4	; 0x4f4 <LCD_Vid_Send_String>
	//_delay_ms(10);
	LCD_Vid_GotoXY(COL1,ROW1);
     c52:	60 e0       	ldi	r22, 0x00	; 0
     c54:	80 e0       	ldi	r24, 0x00	; 0
     c56:	0e 94 16 03 	call	0x62c	; 0x62c <LCD_Vid_GotoXY>
	LCD_Vid_Send_String("_____");
     c5a:	87 e7       	ldi	r24, 0x77	; 119
     c5c:	90 e0       	ldi	r25, 0x00	; 0
     c5e:	0e 94 7a 02 	call	0x4f4	; 0x4f4 <LCD_Vid_Send_String>
	LCD_Vid_Send_Custom_Char(COL6,ROW1,0,char1);
     c62:	28 e6       	ldi	r18, 0x68	; 104
     c64:	30 e0       	ldi	r19, 0x00	; 0
     c66:	40 e0       	ldi	r20, 0x00	; 0
     c68:	60 e0       	ldi	r22, 0x00	; 0
     c6a:	85 e0       	ldi	r24, 0x05	; 5
     c6c:	0e 94 21 03 	call	0x642	; 0x642 <LCD_Vid_Send_Custom_Char>
	LCD_Vid_Send_String("---");
     c70:	86 e8       	ldi	r24, 0x86	; 134
     c72:	90 e0       	ldi	r25, 0x00	; 0
     c74:	0e 94 7a 02 	call	0x4f4	; 0x4f4 <LCD_Vid_Send_String>
	LCD_Vid_Send_Custom_Char(COL10,ROW1,1,char2);
     c78:	20 e6       	ldi	r18, 0x60	; 96
     c7a:	30 e0       	ldi	r19, 0x00	; 0
     c7c:	41 e0       	ldi	r20, 0x01	; 1
     c7e:	60 e0       	ldi	r22, 0x00	; 0
     c80:	89 e0       	ldi	r24, 0x09	; 9
     c82:	0e 94 21 03 	call	0x642	; 0x642 <LCD_Vid_Send_Custom_Char>
	LCD_Vid_Send_String("__");
     c86:	8a e7       	ldi	r24, 0x7A	; 122
     c88:	90 e0       	ldi	r25, 0x00	; 0
     c8a:	0e 94 7a 02 	call	0x4f4	; 0x4f4 <LCD_Vid_Send_String>
	//_delay_ms(10);
	LCD_Vid_GotoXY(COL1,ROW1);
     c8e:	60 e0       	ldi	r22, 0x00	; 0
     c90:	80 e0       	ldi	r24, 0x00	; 0
     c92:	0e 94 16 03 	call	0x62c	; 0x62c <LCD_Vid_GotoXY>
	LCD_Vid_Send_String("____");
     c96:	88 e7       	ldi	r24, 0x78	; 120
     c98:	90 e0       	ldi	r25, 0x00	; 0
     c9a:	0e 94 7a 02 	call	0x4f4	; 0x4f4 <LCD_Vid_Send_String>
	LCD_Vid_Send_Custom_Char(COL5,ROW1,0,char1);
     c9e:	28 e6       	ldi	r18, 0x68	; 104
     ca0:	30 e0       	ldi	r19, 0x00	; 0
     ca2:	40 e0       	ldi	r20, 0x00	; 0
     ca4:	60 e0       	ldi	r22, 0x00	; 0
     ca6:	84 e0       	ldi	r24, 0x04	; 4
     ca8:	0e 94 21 03 	call	0x642	; 0x642 <LCD_Vid_Send_Custom_Char>
	LCD_Vid_Send_String("---");
     cac:	86 e8       	ldi	r24, 0x86	; 134
     cae:	90 e0       	ldi	r25, 0x00	; 0
     cb0:	0e 94 7a 02 	call	0x4f4	; 0x4f4 <LCD_Vid_Send_String>
	LCD_Vid_Send_Custom_Char(COL9,ROW1,1,char2);
     cb4:	20 e6       	ldi	r18, 0x60	; 96
     cb6:	30 e0       	ldi	r19, 0x00	; 0
     cb8:	41 e0       	ldi	r20, 0x01	; 1
     cba:	60 e0       	ldi	r22, 0x00	; 0
     cbc:	88 e0       	ldi	r24, 0x08	; 8
     cbe:	0e 94 21 03 	call	0x642	; 0x642 <LCD_Vid_Send_Custom_Char>
	LCD_Vid_Send_String("___");
     cc2:	89 e7       	ldi	r24, 0x79	; 121
     cc4:	90 e0       	ldi	r25, 0x00	; 0
     cc6:	0e 94 7a 02 	call	0x4f4	; 0x4f4 <LCD_Vid_Send_String>
	//_delay_ms(10);
	LCD_Vid_GotoXY(COL1,ROW1);
     cca:	60 e0       	ldi	r22, 0x00	; 0
     ccc:	80 e0       	ldi	r24, 0x00	; 0
     cce:	0e 94 16 03 	call	0x62c	; 0x62c <LCD_Vid_GotoXY>
	LCD_Vid_Send_String("___");
     cd2:	89 e7       	ldi	r24, 0x79	; 121
     cd4:	90 e0       	ldi	r25, 0x00	; 0
     cd6:	0e 94 7a 02 	call	0x4f4	; 0x4f4 <LCD_Vid_Send_String>
	LCD_Vid_Send_Custom_Char(COL4,ROW1,0,char1);
     cda:	28 e6       	ldi	r18, 0x68	; 104
     cdc:	30 e0       	ldi	r19, 0x00	; 0
     cde:	40 e0       	ldi	r20, 0x00	; 0
     ce0:	60 e0       	ldi	r22, 0x00	; 0
     ce2:	83 e0       	ldi	r24, 0x03	; 3
     ce4:	0e 94 21 03 	call	0x642	; 0x642 <LCD_Vid_Send_Custom_Char>
	LCD_Vid_Send_String("---");
     ce8:	86 e8       	ldi	r24, 0x86	; 134
     cea:	90 e0       	ldi	r25, 0x00	; 0
     cec:	0e 94 7a 02 	call	0x4f4	; 0x4f4 <LCD_Vid_Send_String>
	LCD_Vid_Send_Custom_Char(COL8,ROW1,1,char2);
     cf0:	20 e6       	ldi	r18, 0x60	; 96
     cf2:	30 e0       	ldi	r19, 0x00	; 0
     cf4:	41 e0       	ldi	r20, 0x01	; 1
     cf6:	60 e0       	ldi	r22, 0x00	; 0
     cf8:	87 e0       	ldi	r24, 0x07	; 7
     cfa:	0e 94 21 03 	call	0x642	; 0x642 <LCD_Vid_Send_Custom_Char>
	LCD_Vid_Send_String("____");
     cfe:	88 e7       	ldi	r24, 0x78	; 120
     d00:	90 e0       	ldi	r25, 0x00	; 0
     d02:	0e 94 7a 02 	call	0x4f4	; 0x4f4 <LCD_Vid_Send_String>
	//_delay_ms(10);
	LCD_Vid_GotoXY(COL1,ROW1);
     d06:	60 e0       	ldi	r22, 0x00	; 0
     d08:	80 e0       	ldi	r24, 0x00	; 0
     d0a:	0e 94 16 03 	call	0x62c	; 0x62c <LCD_Vid_GotoXY>
	LCD_Vid_Send_String("__");
     d0e:	8a e7       	ldi	r24, 0x7A	; 122
     d10:	90 e0       	ldi	r25, 0x00	; 0
     d12:	0e 94 7a 02 	call	0x4f4	; 0x4f4 <LCD_Vid_Send_String>
	LCD_Vid_Send_Custom_Char(COL3,ROW1,0,char1);
     d16:	28 e6       	ldi	r18, 0x68	; 104
     d18:	30 e0       	ldi	r19, 0x00	; 0
     d1a:	40 e0       	ldi	r20, 0x00	; 0
     d1c:	60 e0       	ldi	r22, 0x00	; 0
     d1e:	82 e0       	ldi	r24, 0x02	; 2
     d20:	0e 94 21 03 	call	0x642	; 0x642 <LCD_Vid_Send_Custom_Char>
	LCD_Vid_Send_String("---");
     d24:	86 e8       	ldi	r24, 0x86	; 134
     d26:	90 e0       	ldi	r25, 0x00	; 0
     d28:	0e 94 7a 02 	call	0x4f4	; 0x4f4 <LCD_Vid_Send_String>
	LCD_Vid_Send_Custom_Char(COL7,ROW1,1,char2);
     d2c:	20 e6       	ldi	r18, 0x60	; 96
     d2e:	30 e0       	ldi	r19, 0x00	; 0
     d30:	41 e0       	ldi	r20, 0x01	; 1
     d32:	60 e0       	ldi	r22, 0x00	; 0
     d34:	86 e0       	ldi	r24, 0x06	; 6
     d36:	0e 94 21 03 	call	0x642	; 0x642 <LCD_Vid_Send_Custom_Char>
	LCD_Vid_Send_String("_____");
     d3a:	87 e7       	ldi	r24, 0x77	; 119
     d3c:	90 e0       	ldi	r25, 0x00	; 0
     d3e:	0e 94 7a 02 	call	0x4f4	; 0x4f4 <LCD_Vid_Send_String>
	//_delay_ms(10);
	LCD_Vid_GotoXY(COL1,ROW1);
     d42:	60 e0       	ldi	r22, 0x00	; 0
     d44:	80 e0       	ldi	r24, 0x00	; 0
     d46:	0e 94 16 03 	call	0x62c	; 0x62c <LCD_Vid_GotoXY>
	LCD_Vid_Send_String("_");
     d4a:	8b e7       	ldi	r24, 0x7B	; 123
     d4c:	90 e0       	ldi	r25, 0x00	; 0
     d4e:	0e 94 7a 02 	call	0x4f4	; 0x4f4 <LCD_Vid_Send_String>
	LCD_Vid_Send_Custom_Char(COL2,ROW1,0,char1);
     d52:	28 e6       	ldi	r18, 0x68	; 104
     d54:	30 e0       	ldi	r19, 0x00	; 0
     d56:	40 e0       	ldi	r20, 0x00	; 0
     d58:	60 e0       	ldi	r22, 0x00	; 0
     d5a:	81 e0       	ldi	r24, 0x01	; 1
     d5c:	0e 94 21 03 	call	0x642	; 0x642 <LCD_Vid_Send_Custom_Char>
	LCD_Vid_Send_String("---");
     d60:	86 e8       	ldi	r24, 0x86	; 134
     d62:	90 e0       	ldi	r25, 0x00	; 0
     d64:	0e 94 7a 02 	call	0x4f4	; 0x4f4 <LCD_Vid_Send_String>
	LCD_Vid_Send_Custom_Char(COL6,ROW1,1,char2);
     d68:	20 e6       	ldi	r18, 0x60	; 96
     d6a:	30 e0       	ldi	r19, 0x00	; 0
     d6c:	41 e0       	ldi	r20, 0x01	; 1
     d6e:	60 e0       	ldi	r22, 0x00	; 0
     d70:	85 e0       	ldi	r24, 0x05	; 5
     d72:	0e 94 21 03 	call	0x642	; 0x642 <LCD_Vid_Send_Custom_Char>
	LCD_Vid_Send_String("______");
     d76:	86 e7       	ldi	r24, 0x76	; 118
     d78:	90 e0       	ldi	r25, 0x00	; 0
     d7a:	0e 94 7a 02 	call	0x4f4	; 0x4f4 <LCD_Vid_Send_String>
	//_delay_ms(10);
	LCD_Vid_Send_Custom_Char(COL1,ROW1,0,char1);
     d7e:	28 e6       	ldi	r18, 0x68	; 104
     d80:	30 e0       	ldi	r19, 0x00	; 0
     d82:	40 e0       	ldi	r20, 0x00	; 0
     d84:	60 e0       	ldi	r22, 0x00	; 0
     d86:	80 e0       	ldi	r24, 0x00	; 0
     d88:	0e 94 21 03 	call	0x642	; 0x642 <LCD_Vid_Send_Custom_Char>
	LCD_Vid_Send_String("--");
     d8c:	87 e8       	ldi	r24, 0x87	; 135
     d8e:	90 e0       	ldi	r25, 0x00	; 0
     d90:	0e 94 7a 02 	call	0x4f4	; 0x4f4 <LCD_Vid_Send_String>
	LCD_Vid_Send_Custom_Char(COL4,ROW1,1,char2);
     d94:	20 e6       	ldi	r18, 0x60	; 96
     d96:	30 e0       	ldi	r19, 0x00	; 0
     d98:	41 e0       	ldi	r20, 0x01	; 1
     d9a:	60 e0       	ldi	r22, 0x00	; 0
     d9c:	83 e0       	ldi	r24, 0x03	; 3
     d9e:	0e 94 21 03 	call	0x642	; 0x642 <LCD_Vid_Send_Custom_Char>
	LCD_Vid_Send_String("________");
     da2:	84 e7       	ldi	r24, 0x74	; 116
     da4:	90 e0       	ldi	r25, 0x00	; 0
     da6:	0e 94 7a 02 	call	0x4f4	; 0x4f4 <LCD_Vid_Send_String>
	//_delay_ms(10);
	LCD_Vid_GotoXY(COL1,ROW1);
     daa:	60 e0       	ldi	r22, 0x00	; 0
     dac:	80 e0       	ldi	r24, 0x00	; 0
     dae:	0e 94 16 03 	call	0x62c	; 0x62c <LCD_Vid_GotoXY>
	LCD_Vid_Send_String("---");
     db2:	86 e8       	ldi	r24, 0x86	; 134
     db4:	90 e0       	ldi	r25, 0x00	; 0
     db6:	0e 94 7a 02 	call	0x4f4	; 0x4f4 <LCD_Vid_Send_String>
	LCD_Vid_Send_Custom_Char(COL4,ROW1,1,char2);
     dba:	20 e6       	ldi	r18, 0x60	; 96
     dbc:	30 e0       	ldi	r19, 0x00	; 0
     dbe:	41 e0       	ldi	r20, 0x01	; 1
     dc0:	60 e0       	ldi	r22, 0x00	; 0
     dc2:	83 e0       	ldi	r24, 0x03	; 3
     dc4:	0e 94 21 03 	call	0x642	; 0x642 <LCD_Vid_Send_Custom_Char>
	LCD_Vid_Send_String("_______");
     dc8:	85 e7       	ldi	r24, 0x75	; 117
     dca:	90 e0       	ldi	r25, 0x00	; 0
     dcc:	0e 94 7a 02 	call	0x4f4	; 0x4f4 <LCD_Vid_Send_String>
	LCD_Vid_Send_Custom_Char(COL12,ROW1,0,char1);
     dd0:	28 e6       	ldi	r18, 0x68	; 104
     dd2:	30 e0       	ldi	r19, 0x00	; 0
     dd4:	40 e0       	ldi	r20, 0x00	; 0
     dd6:	60 e0       	ldi	r22, 0x00	; 0
     dd8:	8b e0       	ldi	r24, 0x0B	; 11
     dda:	0e 94 21 03 	call	0x642	; 0x642 <LCD_Vid_Send_Custom_Char>
	//_delay_ms(10);
	LCD_Vid_GotoXY(COL1,ROW1);
     dde:	60 e0       	ldi	r22, 0x00	; 0
     de0:	80 e0       	ldi	r24, 0x00	; 0
     de2:	0e 94 16 03 	call	0x62c	; 0x62c <LCD_Vid_GotoXY>
	LCD_Vid_Send_String("--");
     de6:	87 e8       	ldi	r24, 0x87	; 135
     de8:	90 e0       	ldi	r25, 0x00	; 0
     dea:	0e 94 7a 02 	call	0x4f4	; 0x4f4 <LCD_Vid_Send_String>
	LCD_Vid_Send_Custom_Char(COL3,ROW1,1,char2);
     dee:	20 e6       	ldi	r18, 0x60	; 96
     df0:	30 e0       	ldi	r19, 0x00	; 0
     df2:	41 e0       	ldi	r20, 0x01	; 1
     df4:	60 e0       	ldi	r22, 0x00	; 0
     df6:	82 e0       	ldi	r24, 0x02	; 2
     df8:	0e 94 21 03 	call	0x642	; 0x642 <LCD_Vid_Send_Custom_Char>
	LCD_Vid_Send_String("_______");
     dfc:	85 e7       	ldi	r24, 0x75	; 117
     dfe:	90 e0       	ldi	r25, 0x00	; 0
     e00:	0e 94 7a 02 	call	0x4f4	; 0x4f4 <LCD_Vid_Send_String>
	LCD_Vid_Send_Custom_Char(COL11,ROW1,0,char1);
     e04:	28 e6       	ldi	r18, 0x68	; 104
     e06:	30 e0       	ldi	r19, 0x00	; 0
     e08:	40 e0       	ldi	r20, 0x00	; 0
     e0a:	60 e0       	ldi	r22, 0x00	; 0
     e0c:	8a e0       	ldi	r24, 0x0A	; 10
     e0e:	0e 94 21 03 	call	0x642	; 0x642 <LCD_Vid_Send_Custom_Char>
	LCD_Vid_Send_String("-");
     e12:	88 e8       	ldi	r24, 0x88	; 136
     e14:	90 e0       	ldi	r25, 0x00	; 0
     e16:	0e 94 7a 02 	call	0x4f4	; 0x4f4 <LCD_Vid_Send_String>
	//_delay_ms(10);
	LCD_Vid_GotoXY(COL1,ROW1);
     e1a:	60 e0       	ldi	r22, 0x00	; 0
     e1c:	80 e0       	ldi	r24, 0x00	; 0
     e1e:	0e 94 16 03 	call	0x62c	; 0x62c <LCD_Vid_GotoXY>
	LCD_Vid_Send_String("-");
     e22:	88 e8       	ldi	r24, 0x88	; 136
     e24:	90 e0       	ldi	r25, 0x00	; 0
     e26:	0e 94 7a 02 	call	0x4f4	; 0x4f4 <LCD_Vid_Send_String>
	LCD_Vid_Send_Custom_Char(COL3,ROW1,1,char2);
     e2a:	20 e6       	ldi	r18, 0x60	; 96
     e2c:	30 e0       	ldi	r19, 0x00	; 0
     e2e:	41 e0       	ldi	r20, 0x01	; 1
     e30:	60 e0       	ldi	r22, 0x00	; 0
     e32:	82 e0       	ldi	r24, 0x02	; 2
     e34:	0e 94 21 03 	call	0x642	; 0x642 <LCD_Vid_Send_Custom_Char>
	LCD_Vid_Send_String("_______");
     e38:	85 e7       	ldi	r24, 0x75	; 117
     e3a:	90 e0       	ldi	r25, 0x00	; 0
     e3c:	0e 94 7a 02 	call	0x4f4	; 0x4f4 <LCD_Vid_Send_String>
	LCD_Vid_Send_Custom_Char(COL10,ROW1,0,char1);
     e40:	28 e6       	ldi	r18, 0x68	; 104
     e42:	30 e0       	ldi	r19, 0x00	; 0
     e44:	40 e0       	ldi	r20, 0x00	; 0
     e46:	60 e0       	ldi	r22, 0x00	; 0
     e48:	89 e0       	ldi	r24, 0x09	; 9
     e4a:	0e 94 21 03 	call	0x642	; 0x642 <LCD_Vid_Send_Custom_Char>
	LCD_Vid_Send_String("--");
     e4e:	87 e8       	ldi	r24, 0x87	; 135
     e50:	90 e0       	ldi	r25, 0x00	; 0
     e52:	0e 94 7a 02 	call	0x4f4	; 0x4f4 <LCD_Vid_Send_String>
	//_delay_ms(10);
	LCD_Vid_Send_Custom_Char(COL1,ROW1,1,char2);
     e56:	20 e6       	ldi	r18, 0x60	; 96
     e58:	30 e0       	ldi	r19, 0x00	; 0
     e5a:	41 e0       	ldi	r20, 0x01	; 1
     e5c:	60 e0       	ldi	r22, 0x00	; 0
     e5e:	80 e0       	ldi	r24, 0x00	; 0
     e60:	0e 94 21 03 	call	0x642	; 0x642 <LCD_Vid_Send_Custom_Char>
	LCD_Vid_Send_String("_______");
     e64:	85 e7       	ldi	r24, 0x75	; 117
     e66:	90 e0       	ldi	r25, 0x00	; 0
     e68:	0e 94 7a 02 	call	0x4f4	; 0x4f4 <LCD_Vid_Send_String>
	LCD_Vid_Send_Custom_Char(COL9,ROW1,0,char1);
     e6c:	28 e6       	ldi	r18, 0x68	; 104
     e6e:	30 e0       	ldi	r19, 0x00	; 0
     e70:	40 e0       	ldi	r20, 0x00	; 0
     e72:	60 e0       	ldi	r22, 0x00	; 0
     e74:	88 e0       	ldi	r24, 0x08	; 8
     e76:	0e 94 21 03 	call	0x642	; 0x642 <LCD_Vid_Send_Custom_Char>
	LCD_Vid_Send_String("---");
     e7a:	86 e8       	ldi	r24, 0x86	; 134
     e7c:	90 e0       	ldi	r25, 0x00	; 0
     e7e:	0e 94 7a 02 	call	0x4f4	; 0x4f4 <LCD_Vid_Send_String>
     e82:	08 95       	ret

00000e84 <lcd_40>:
	//_delay_ms(10);
}
void lcd_40(){
	LCD_Vid_GotoXY(COL1,ROW1);
     e84:	60 e0       	ldi	r22, 0x00	; 0
     e86:	80 e0       	ldi	r24, 0x00	; 0
     e88:	0e 94 16 03 	call	0x62c	; 0x62c <LCD_Vid_GotoXY>
	LCD_Vid_Send_String("______");
     e8c:	86 e7       	ldi	r24, 0x76	; 118
     e8e:	90 e0       	ldi	r25, 0x00	; 0
     e90:	0e 94 7a 02 	call	0x4f4	; 0x4f4 <LCD_Vid_Send_String>
	LCD_Vid_Send_Custom_Char(COL7,ROW1,0,char1);
     e94:	28 e6       	ldi	r18, 0x68	; 104
     e96:	30 e0       	ldi	r19, 0x00	; 0
     e98:	40 e0       	ldi	r20, 0x00	; 0
     e9a:	60 e0       	ldi	r22, 0x00	; 0
     e9c:	86 e0       	ldi	r24, 0x06	; 6
     e9e:	0e 94 21 03 	call	0x642	; 0x642 <LCD_Vid_Send_Custom_Char>
	LCD_Vid_Send_String("----");
     ea2:	85 e8       	ldi	r24, 0x85	; 133
     ea4:	90 e0       	ldi	r25, 0x00	; 0
     ea6:	0e 94 7a 02 	call	0x4f4	; 0x4f4 <LCD_Vid_Send_String>
	LCD_Vid_Send_Custom_Char(COL12,ROW1,1,char2);
     eaa:	20 e6       	ldi	r18, 0x60	; 96
     eac:	30 e0       	ldi	r19, 0x00	; 0
     eae:	41 e0       	ldi	r20, 0x01	; 1
     eb0:	60 e0       	ldi	r22, 0x00	; 0
     eb2:	8b e0       	ldi	r24, 0x0B	; 11
     eb4:	0e 94 21 03 	call	0x642	; 0x642 <LCD_Vid_Send_Custom_Char>
	//_delay_ms(10);
	LCD_Vid_GotoXY(COL1,ROW1);
     eb8:	60 e0       	ldi	r22, 0x00	; 0
     eba:	80 e0       	ldi	r24, 0x00	; 0
     ebc:	0e 94 16 03 	call	0x62c	; 0x62c <LCD_Vid_GotoXY>
	LCD_Vid_Send_String("_____");
     ec0:	87 e7       	ldi	r24, 0x77	; 119
     ec2:	90 e0       	ldi	r25, 0x00	; 0
     ec4:	0e 94 7a 02 	call	0x4f4	; 0x4f4 <LCD_Vid_Send_String>
	LCD_Vid_Send_Custom_Char(COL6,ROW1,0,char1);
     ec8:	28 e6       	ldi	r18, 0x68	; 104
     eca:	30 e0       	ldi	r19, 0x00	; 0
     ecc:	40 e0       	ldi	r20, 0x00	; 0
     ece:	60 e0       	ldi	r22, 0x00	; 0
     ed0:	85 e0       	ldi	r24, 0x05	; 5
     ed2:	0e 94 21 03 	call	0x642	; 0x642 <LCD_Vid_Send_Custom_Char>
	LCD_Vid_Send_String("----");
     ed6:	85 e8       	ldi	r24, 0x85	; 133
     ed8:	90 e0       	ldi	r25, 0x00	; 0
     eda:	0e 94 7a 02 	call	0x4f4	; 0x4f4 <LCD_Vid_Send_String>
	LCD_Vid_Send_Custom_Char(COL11,ROW1,1,char2);
     ede:	20 e6       	ldi	r18, 0x60	; 96
     ee0:	30 e0       	ldi	r19, 0x00	; 0
     ee2:	41 e0       	ldi	r20, 0x01	; 1
     ee4:	60 e0       	ldi	r22, 0x00	; 0
     ee6:	8a e0       	ldi	r24, 0x0A	; 10
     ee8:	0e 94 21 03 	call	0x642	; 0x642 <LCD_Vid_Send_Custom_Char>
	LCD_Vid_Send_String("_");
     eec:	8b e7       	ldi	r24, 0x7B	; 123
     eee:	90 e0       	ldi	r25, 0x00	; 0
     ef0:	0e 94 7a 02 	call	0x4f4	; 0x4f4 <LCD_Vid_Send_String>
	//_delay_ms(10);
	LCD_Vid_GotoXY(COL1,ROW1);
     ef4:	60 e0       	ldi	r22, 0x00	; 0
     ef6:	80 e0       	ldi	r24, 0x00	; 0
     ef8:	0e 94 16 03 	call	0x62c	; 0x62c <LCD_Vid_GotoXY>
	LCD_Vid_Send_String("____");
     efc:	88 e7       	ldi	r24, 0x78	; 120
     efe:	90 e0       	ldi	r25, 0x00	; 0
     f00:	0e 94 7a 02 	call	0x4f4	; 0x4f4 <LCD_Vid_Send_String>
	LCD_Vid_Send_Custom_Char(COL5,ROW1,0,char1);
     f04:	28 e6       	ldi	r18, 0x68	; 104
     f06:	30 e0       	ldi	r19, 0x00	; 0
     f08:	40 e0       	ldi	r20, 0x00	; 0
     f0a:	60 e0       	ldi	r22, 0x00	; 0
     f0c:	84 e0       	ldi	r24, 0x04	; 4
     f0e:	0e 94 21 03 	call	0x642	; 0x642 <LCD_Vid_Send_Custom_Char>
	LCD_Vid_Send_String("----");
     f12:	85 e8       	ldi	r24, 0x85	; 133
     f14:	90 e0       	ldi	r25, 0x00	; 0
     f16:	0e 94 7a 02 	call	0x4f4	; 0x4f4 <LCD_Vid_Send_String>
	LCD_Vid_Send_Custom_Char(COL10,ROW1,1,char2);
     f1a:	20 e6       	ldi	r18, 0x60	; 96
     f1c:	30 e0       	ldi	r19, 0x00	; 0
     f1e:	41 e0       	ldi	r20, 0x01	; 1
     f20:	60 e0       	ldi	r22, 0x00	; 0
     f22:	89 e0       	ldi	r24, 0x09	; 9
     f24:	0e 94 21 03 	call	0x642	; 0x642 <LCD_Vid_Send_Custom_Char>
	LCD_Vid_Send_String("__");
     f28:	8a e7       	ldi	r24, 0x7A	; 122
     f2a:	90 e0       	ldi	r25, 0x00	; 0
     f2c:	0e 94 7a 02 	call	0x4f4	; 0x4f4 <LCD_Vid_Send_String>
	//_delay_ms(10);
	LCD_Vid_GotoXY(COL1,ROW1);
     f30:	60 e0       	ldi	r22, 0x00	; 0
     f32:	80 e0       	ldi	r24, 0x00	; 0
     f34:	0e 94 16 03 	call	0x62c	; 0x62c <LCD_Vid_GotoXY>
	LCD_Vid_Send_String("___");
     f38:	89 e7       	ldi	r24, 0x79	; 121
     f3a:	90 e0       	ldi	r25, 0x00	; 0
     f3c:	0e 94 7a 02 	call	0x4f4	; 0x4f4 <LCD_Vid_Send_String>
	LCD_Vid_Send_Custom_Char(COL4,ROW1,0,char1);
     f40:	28 e6       	ldi	r18, 0x68	; 104
     f42:	30 e0       	ldi	r19, 0x00	; 0
     f44:	40 e0       	ldi	r20, 0x00	; 0
     f46:	60 e0       	ldi	r22, 0x00	; 0
     f48:	83 e0       	ldi	r24, 0x03	; 3
     f4a:	0e 94 21 03 	call	0x642	; 0x642 <LCD_Vid_Send_Custom_Char>
	LCD_Vid_Send_String("----");
     f4e:	85 e8       	ldi	r24, 0x85	; 133
     f50:	90 e0       	ldi	r25, 0x00	; 0
     f52:	0e 94 7a 02 	call	0x4f4	; 0x4f4 <LCD_Vid_Send_String>
	LCD_Vid_Send_Custom_Char(COL9,ROW1,1,char2);
     f56:	20 e6       	ldi	r18, 0x60	; 96
     f58:	30 e0       	ldi	r19, 0x00	; 0
     f5a:	41 e0       	ldi	r20, 0x01	; 1
     f5c:	60 e0       	ldi	r22, 0x00	; 0
     f5e:	88 e0       	ldi	r24, 0x08	; 8
     f60:	0e 94 21 03 	call	0x642	; 0x642 <LCD_Vid_Send_Custom_Char>
	LCD_Vid_Send_String("___");
     f64:	89 e7       	ldi	r24, 0x79	; 121
     f66:	90 e0       	ldi	r25, 0x00	; 0
     f68:	0e 94 7a 02 	call	0x4f4	; 0x4f4 <LCD_Vid_Send_String>
	//_delay_ms(10);
	LCD_Vid_GotoXY(COL1,ROW1);
     f6c:	60 e0       	ldi	r22, 0x00	; 0
     f6e:	80 e0       	ldi	r24, 0x00	; 0
     f70:	0e 94 16 03 	call	0x62c	; 0x62c <LCD_Vid_GotoXY>
	LCD_Vid_Send_String("__");
     f74:	8a e7       	ldi	r24, 0x7A	; 122
     f76:	90 e0       	ldi	r25, 0x00	; 0
     f78:	0e 94 7a 02 	call	0x4f4	; 0x4f4 <LCD_Vid_Send_String>
	LCD_Vid_Send_Custom_Char(COL3,ROW1,0,char1);
     f7c:	28 e6       	ldi	r18, 0x68	; 104
     f7e:	30 e0       	ldi	r19, 0x00	; 0
     f80:	40 e0       	ldi	r20, 0x00	; 0
     f82:	60 e0       	ldi	r22, 0x00	; 0
     f84:	82 e0       	ldi	r24, 0x02	; 2
     f86:	0e 94 21 03 	call	0x642	; 0x642 <LCD_Vid_Send_Custom_Char>
	LCD_Vid_Send_String("----");
     f8a:	85 e8       	ldi	r24, 0x85	; 133
     f8c:	90 e0       	ldi	r25, 0x00	; 0
     f8e:	0e 94 7a 02 	call	0x4f4	; 0x4f4 <LCD_Vid_Send_String>
	LCD_Vid_Send_Custom_Char(COL8,ROW1,1,char2);
     f92:	20 e6       	ldi	r18, 0x60	; 96
     f94:	30 e0       	ldi	r19, 0x00	; 0
     f96:	41 e0       	ldi	r20, 0x01	; 1
     f98:	60 e0       	ldi	r22, 0x00	; 0
     f9a:	87 e0       	ldi	r24, 0x07	; 7
     f9c:	0e 94 21 03 	call	0x642	; 0x642 <LCD_Vid_Send_Custom_Char>
	LCD_Vid_Send_String("____");
     fa0:	88 e7       	ldi	r24, 0x78	; 120
     fa2:	90 e0       	ldi	r25, 0x00	; 0
     fa4:	0e 94 7a 02 	call	0x4f4	; 0x4f4 <LCD_Vid_Send_String>
	//_delay_ms(10);
	LCD_Vid_GotoXY(COL1,ROW1);
     fa8:	60 e0       	ldi	r22, 0x00	; 0
     faa:	80 e0       	ldi	r24, 0x00	; 0
     fac:	0e 94 16 03 	call	0x62c	; 0x62c <LCD_Vid_GotoXY>
	LCD_Vid_Send_String("_");
     fb0:	8b e7       	ldi	r24, 0x7B	; 123
     fb2:	90 e0       	ldi	r25, 0x00	; 0
     fb4:	0e 94 7a 02 	call	0x4f4	; 0x4f4 <LCD_Vid_Send_String>
	LCD_Vid_Send_Custom_Char(COL2,ROW1,0,char1);
     fb8:	28 e6       	ldi	r18, 0x68	; 104
     fba:	30 e0       	ldi	r19, 0x00	; 0
     fbc:	40 e0       	ldi	r20, 0x00	; 0
     fbe:	60 e0       	ldi	r22, 0x00	; 0
     fc0:	81 e0       	ldi	r24, 0x01	; 1
     fc2:	0e 94 21 03 	call	0x642	; 0x642 <LCD_Vid_Send_Custom_Char>
	LCD_Vid_Send_String("----");
     fc6:	85 e8       	ldi	r24, 0x85	; 133
     fc8:	90 e0       	ldi	r25, 0x00	; 0
     fca:	0e 94 7a 02 	call	0x4f4	; 0x4f4 <LCD_Vid_Send_String>
	LCD_Vid_Send_Custom_Char(COL7,ROW1,1,char2);
     fce:	20 e6       	ldi	r18, 0x60	; 96
     fd0:	30 e0       	ldi	r19, 0x00	; 0
     fd2:	41 e0       	ldi	r20, 0x01	; 1
     fd4:	60 e0       	ldi	r22, 0x00	; 0
     fd6:	86 e0       	ldi	r24, 0x06	; 6
     fd8:	0e 94 21 03 	call	0x642	; 0x642 <LCD_Vid_Send_Custom_Char>
	LCD_Vid_Send_String("_____");
     fdc:	87 e7       	ldi	r24, 0x77	; 119
     fde:	90 e0       	ldi	r25, 0x00	; 0
     fe0:	0e 94 7a 02 	call	0x4f4	; 0x4f4 <LCD_Vid_Send_String>
	//_delay_ms(10);
	LCD_Vid_Send_Custom_Char(COL1,ROW1,0,char1);
     fe4:	28 e6       	ldi	r18, 0x68	; 104
     fe6:	30 e0       	ldi	r19, 0x00	; 0
     fe8:	40 e0       	ldi	r20, 0x00	; 0
     fea:	60 e0       	ldi	r22, 0x00	; 0
     fec:	80 e0       	ldi	r24, 0x00	; 0
     fee:	0e 94 21 03 	call	0x642	; 0x642 <LCD_Vid_Send_Custom_Char>
	LCD_Vid_Send_String("----");
     ff2:	85 e8       	ldi	r24, 0x85	; 133
     ff4:	90 e0       	ldi	r25, 0x00	; 0
     ff6:	0e 94 7a 02 	call	0x4f4	; 0x4f4 <LCD_Vid_Send_String>
	LCD_Vid_Send_Custom_Char(COL6,ROW1,1,char2);
     ffa:	20 e6       	ldi	r18, 0x60	; 96
     ffc:	30 e0       	ldi	r19, 0x00	; 0
     ffe:	41 e0       	ldi	r20, 0x01	; 1
    1000:	60 e0       	ldi	r22, 0x00	; 0
    1002:	85 e0       	ldi	r24, 0x05	; 5
    1004:	0e 94 21 03 	call	0x642	; 0x642 <LCD_Vid_Send_Custom_Char>
	LCD_Vid_Send_String("______");
    1008:	86 e7       	ldi	r24, 0x76	; 118
    100a:	90 e0       	ldi	r25, 0x00	; 0
    100c:	0e 94 7a 02 	call	0x4f4	; 0x4f4 <LCD_Vid_Send_String>
	//_delay_ms(10);
	LCD_Vid_GotoXY(COL1,ROW1);
    1010:	60 e0       	ldi	r22, 0x00	; 0
    1012:	80 e0       	ldi	r24, 0x00	; 0
    1014:	0e 94 16 03 	call	0x62c	; 0x62c <LCD_Vid_GotoXY>
	LCD_Vid_Send_String("----");
    1018:	85 e8       	ldi	r24, 0x85	; 133
    101a:	90 e0       	ldi	r25, 0x00	; 0
    101c:	0e 94 7a 02 	call	0x4f4	; 0x4f4 <LCD_Vid_Send_String>
	LCD_Vid_Send_Custom_Char(COL5,ROW1,1,char2);
    1020:	20 e6       	ldi	r18, 0x60	; 96
    1022:	30 e0       	ldi	r19, 0x00	; 0
    1024:	41 e0       	ldi	r20, 0x01	; 1
    1026:	60 e0       	ldi	r22, 0x00	; 0
    1028:	84 e0       	ldi	r24, 0x04	; 4
    102a:	0e 94 21 03 	call	0x642	; 0x642 <LCD_Vid_Send_Custom_Char>
	LCD_Vid_Send_String("______");
    102e:	86 e7       	ldi	r24, 0x76	; 118
    1030:	90 e0       	ldi	r25, 0x00	; 0
    1032:	0e 94 7a 02 	call	0x4f4	; 0x4f4 <LCD_Vid_Send_String>
	LCD_Vid_Send_Custom_Char(COL12,ROW1,0,char1);
    1036:	28 e6       	ldi	r18, 0x68	; 104
    1038:	30 e0       	ldi	r19, 0x00	; 0
    103a:	40 e0       	ldi	r20, 0x00	; 0
    103c:	60 e0       	ldi	r22, 0x00	; 0
    103e:	8b e0       	ldi	r24, 0x0B	; 11
    1040:	0e 94 21 03 	call	0x642	; 0x642 <LCD_Vid_Send_Custom_Char>
	//_delay_ms(10);
	LCD_Vid_GotoXY(COL1,ROW1);
    1044:	60 e0       	ldi	r22, 0x00	; 0
    1046:	80 e0       	ldi	r24, 0x00	; 0
    1048:	0e 94 16 03 	call	0x62c	; 0x62c <LCD_Vid_GotoXY>
	LCD_Vid_Send_String("---");
    104c:	86 e8       	ldi	r24, 0x86	; 134
    104e:	90 e0       	ldi	r25, 0x00	; 0
    1050:	0e 94 7a 02 	call	0x4f4	; 0x4f4 <LCD_Vid_Send_String>
	LCD_Vid_Send_Custom_Char(COL4,ROW1,1,char2);
    1054:	20 e6       	ldi	r18, 0x60	; 96
    1056:	30 e0       	ldi	r19, 0x00	; 0
    1058:	41 e0       	ldi	r20, 0x01	; 1
    105a:	60 e0       	ldi	r22, 0x00	; 0
    105c:	83 e0       	ldi	r24, 0x03	; 3
    105e:	0e 94 21 03 	call	0x642	; 0x642 <LCD_Vid_Send_Custom_Char>
	LCD_Vid_Send_String("_______");
    1062:	85 e7       	ldi	r24, 0x75	; 117
    1064:	90 e0       	ldi	r25, 0x00	; 0
    1066:	0e 94 7a 02 	call	0x4f4	; 0x4f4 <LCD_Vid_Send_String>
	LCD_Vid_Send_Custom_Char(COL11,ROW1,0,char1);
    106a:	28 e6       	ldi	r18, 0x68	; 104
    106c:	30 e0       	ldi	r19, 0x00	; 0
    106e:	40 e0       	ldi	r20, 0x00	; 0
    1070:	60 e0       	ldi	r22, 0x00	; 0
    1072:	8a e0       	ldi	r24, 0x0A	; 10
    1074:	0e 94 21 03 	call	0x642	; 0x642 <LCD_Vid_Send_Custom_Char>
	LCD_Vid_Send_String("-");
    1078:	88 e8       	ldi	r24, 0x88	; 136
    107a:	90 e0       	ldi	r25, 0x00	; 0
    107c:	0e 94 7a 02 	call	0x4f4	; 0x4f4 <LCD_Vid_Send_String>
	//_delay_ms(10);
	LCD_Vid_GotoXY(COL1,ROW1);
    1080:	60 e0       	ldi	r22, 0x00	; 0
    1082:	80 e0       	ldi	r24, 0x00	; 0
    1084:	0e 94 16 03 	call	0x62c	; 0x62c <LCD_Vid_GotoXY>
	LCD_Vid_Send_String("--");
    1088:	87 e8       	ldi	r24, 0x87	; 135
    108a:	90 e0       	ldi	r25, 0x00	; 0
    108c:	0e 94 7a 02 	call	0x4f4	; 0x4f4 <LCD_Vid_Send_String>
	LCD_Vid_Send_Custom_Char(COL3,ROW1,1,char2);
    1090:	20 e6       	ldi	r18, 0x60	; 96
    1092:	30 e0       	ldi	r19, 0x00	; 0
    1094:	41 e0       	ldi	r20, 0x01	; 1
    1096:	60 e0       	ldi	r22, 0x00	; 0
    1098:	82 e0       	ldi	r24, 0x02	; 2
    109a:	0e 94 21 03 	call	0x642	; 0x642 <LCD_Vid_Send_Custom_Char>
	LCD_Vid_Send_String("_______");
    109e:	85 e7       	ldi	r24, 0x75	; 117
    10a0:	90 e0       	ldi	r25, 0x00	; 0
    10a2:	0e 94 7a 02 	call	0x4f4	; 0x4f4 <LCD_Vid_Send_String>
	LCD_Vid_Send_Custom_Char(COL10,ROW1,0,char1);
    10a6:	28 e6       	ldi	r18, 0x68	; 104
    10a8:	30 e0       	ldi	r19, 0x00	; 0
    10aa:	40 e0       	ldi	r20, 0x00	; 0
    10ac:	60 e0       	ldi	r22, 0x00	; 0
    10ae:	89 e0       	ldi	r24, 0x09	; 9
    10b0:	0e 94 21 03 	call	0x642	; 0x642 <LCD_Vid_Send_Custom_Char>
	LCD_Vid_Send_String("--");
    10b4:	87 e8       	ldi	r24, 0x87	; 135
    10b6:	90 e0       	ldi	r25, 0x00	; 0
    10b8:	0e 94 7a 02 	call	0x4f4	; 0x4f4 <LCD_Vid_Send_String>
	//_delay_ms(10);
	LCD_Vid_GotoXY(COL1,ROW1);
    10bc:	60 e0       	ldi	r22, 0x00	; 0
    10be:	80 e0       	ldi	r24, 0x00	; 0
    10c0:	0e 94 16 03 	call	0x62c	; 0x62c <LCD_Vid_GotoXY>
	LCD_Vid_Send_String("-");
    10c4:	88 e8       	ldi	r24, 0x88	; 136
    10c6:	90 e0       	ldi	r25, 0x00	; 0
    10c8:	0e 94 7a 02 	call	0x4f4	; 0x4f4 <LCD_Vid_Send_String>
	LCD_Vid_Send_Custom_Char(COL2,ROW1,1,char2);
    10cc:	20 e6       	ldi	r18, 0x60	; 96
    10ce:	30 e0       	ldi	r19, 0x00	; 0
    10d0:	41 e0       	ldi	r20, 0x01	; 1
    10d2:	60 e0       	ldi	r22, 0x00	; 0
    10d4:	81 e0       	ldi	r24, 0x01	; 1
    10d6:	0e 94 21 03 	call	0x642	; 0x642 <LCD_Vid_Send_Custom_Char>
	LCD_Vid_Send_String("_______");
    10da:	85 e7       	ldi	r24, 0x75	; 117
    10dc:	90 e0       	ldi	r25, 0x00	; 0
    10de:	0e 94 7a 02 	call	0x4f4	; 0x4f4 <LCD_Vid_Send_String>
	LCD_Vid_Send_Custom_Char(COL9,ROW1,0,char1);
    10e2:	28 e6       	ldi	r18, 0x68	; 104
    10e4:	30 e0       	ldi	r19, 0x00	; 0
    10e6:	40 e0       	ldi	r20, 0x00	; 0
    10e8:	60 e0       	ldi	r22, 0x00	; 0
    10ea:	88 e0       	ldi	r24, 0x08	; 8
    10ec:	0e 94 21 03 	call	0x642	; 0x642 <LCD_Vid_Send_Custom_Char>
	LCD_Vid_Send_String("---");
    10f0:	86 e8       	ldi	r24, 0x86	; 134
    10f2:	90 e0       	ldi	r25, 0x00	; 0
    10f4:	0e 94 7a 02 	call	0x4f4	; 0x4f4 <LCD_Vid_Send_String>
	//_delay_ms(10);
	LCD_Vid_Send_Custom_Char(COL1,ROW1,1,char2);
    10f8:	20 e6       	ldi	r18, 0x60	; 96
    10fa:	30 e0       	ldi	r19, 0x00	; 0
    10fc:	41 e0       	ldi	r20, 0x01	; 1
    10fe:	60 e0       	ldi	r22, 0x00	; 0
    1100:	80 e0       	ldi	r24, 0x00	; 0
    1102:	0e 94 21 03 	call	0x642	; 0x642 <LCD_Vid_Send_Custom_Char>
	LCD_Vid_Send_String("_______");
    1106:	85 e7       	ldi	r24, 0x75	; 117
    1108:	90 e0       	ldi	r25, 0x00	; 0
    110a:	0e 94 7a 02 	call	0x4f4	; 0x4f4 <LCD_Vid_Send_String>
	LCD_Vid_Send_Custom_Char(COL8,ROW1,0,char1);
    110e:	28 e6       	ldi	r18, 0x68	; 104
    1110:	30 e0       	ldi	r19, 0x00	; 0
    1112:	40 e0       	ldi	r20, 0x00	; 0
    1114:	60 e0       	ldi	r22, 0x00	; 0
    1116:	87 e0       	ldi	r24, 0x07	; 7
    1118:	0e 94 21 03 	call	0x642	; 0x642 <LCD_Vid_Send_Custom_Char>
	LCD_Vid_Send_String("----");
    111c:	85 e8       	ldi	r24, 0x85	; 133
    111e:	90 e0       	ldi	r25, 0x00	; 0
    1120:	0e 94 7a 02 	call	0x4f4	; 0x4f4 <LCD_Vid_Send_String>
    1124:	08 95       	ret

00001126 <lcd_50>:
	//_delay_ms(10);
}
void lcd_50(){
	LCD_Vid_GotoXY(COL1,ROW1);
    1126:	60 e0       	ldi	r22, 0x00	; 0
    1128:	80 e0       	ldi	r24, 0x00	; 0
    112a:	0e 94 16 03 	call	0x62c	; 0x62c <LCD_Vid_GotoXY>
	LCD_Vid_Send_String("_____");
    112e:	87 e7       	ldi	r24, 0x77	; 119
    1130:	90 e0       	ldi	r25, 0x00	; 0
    1132:	0e 94 7a 02 	call	0x4f4	; 0x4f4 <LCD_Vid_Send_String>
	LCD_Vid_Send_Custom_Char(COL6,ROW1,0,char1);
    1136:	28 e6       	ldi	r18, 0x68	; 104
    1138:	30 e0       	ldi	r19, 0x00	; 0
    113a:	40 e0       	ldi	r20, 0x00	; 0
    113c:	60 e0       	ldi	r22, 0x00	; 0
    113e:	85 e0       	ldi	r24, 0x05	; 5
    1140:	0e 94 21 03 	call	0x642	; 0x642 <LCD_Vid_Send_Custom_Char>
	LCD_Vid_Send_String("-----");
    1144:	84 e8       	ldi	r24, 0x84	; 132
    1146:	90 e0       	ldi	r25, 0x00	; 0
    1148:	0e 94 7a 02 	call	0x4f4	; 0x4f4 <LCD_Vid_Send_String>
	LCD_Vid_Send_Custom_Char(COL12,ROW1,1,char2);
    114c:	20 e6       	ldi	r18, 0x60	; 96
    114e:	30 e0       	ldi	r19, 0x00	; 0
    1150:	41 e0       	ldi	r20, 0x01	; 1
    1152:	60 e0       	ldi	r22, 0x00	; 0
    1154:	8b e0       	ldi	r24, 0x0B	; 11
    1156:	0e 94 21 03 	call	0x642	; 0x642 <LCD_Vid_Send_Custom_Char>
	//_delay_ms(10);
	LCD_Vid_GotoXY(COL1,ROW1);
    115a:	60 e0       	ldi	r22, 0x00	; 0
    115c:	80 e0       	ldi	r24, 0x00	; 0
    115e:	0e 94 16 03 	call	0x62c	; 0x62c <LCD_Vid_GotoXY>
	LCD_Vid_Send_String("____");
    1162:	88 e7       	ldi	r24, 0x78	; 120
    1164:	90 e0       	ldi	r25, 0x00	; 0
    1166:	0e 94 7a 02 	call	0x4f4	; 0x4f4 <LCD_Vid_Send_String>
	LCD_Vid_Send_Custom_Char(COL5,ROW1,0,char1);
    116a:	28 e6       	ldi	r18, 0x68	; 104
    116c:	30 e0       	ldi	r19, 0x00	; 0
    116e:	40 e0       	ldi	r20, 0x00	; 0
    1170:	60 e0       	ldi	r22, 0x00	; 0
    1172:	84 e0       	ldi	r24, 0x04	; 4
    1174:	0e 94 21 03 	call	0x642	; 0x642 <LCD_Vid_Send_Custom_Char>
	LCD_Vid_Send_String("-----");
    1178:	84 e8       	ldi	r24, 0x84	; 132
    117a:	90 e0       	ldi	r25, 0x00	; 0
    117c:	0e 94 7a 02 	call	0x4f4	; 0x4f4 <LCD_Vid_Send_String>
	LCD_Vid_Send_Custom_Char(COL11,ROW1,1,char2);
    1180:	20 e6       	ldi	r18, 0x60	; 96
    1182:	30 e0       	ldi	r19, 0x00	; 0
    1184:	41 e0       	ldi	r20, 0x01	; 1
    1186:	60 e0       	ldi	r22, 0x00	; 0
    1188:	8a e0       	ldi	r24, 0x0A	; 10
    118a:	0e 94 21 03 	call	0x642	; 0x642 <LCD_Vid_Send_Custom_Char>
	LCD_Vid_Send_String("_");
    118e:	8b e7       	ldi	r24, 0x7B	; 123
    1190:	90 e0       	ldi	r25, 0x00	; 0
    1192:	0e 94 7a 02 	call	0x4f4	; 0x4f4 <LCD_Vid_Send_String>
	//_delay_ms(10);
	LCD_Vid_GotoXY(COL1,ROW1);
    1196:	60 e0       	ldi	r22, 0x00	; 0
    1198:	80 e0       	ldi	r24, 0x00	; 0
    119a:	0e 94 16 03 	call	0x62c	; 0x62c <LCD_Vid_GotoXY>
	LCD_Vid_Send_String("___");
    119e:	89 e7       	ldi	r24, 0x79	; 121
    11a0:	90 e0       	ldi	r25, 0x00	; 0
    11a2:	0e 94 7a 02 	call	0x4f4	; 0x4f4 <LCD_Vid_Send_String>
	LCD_Vid_Send_Custom_Char(COL4,ROW1,0,char1);
    11a6:	28 e6       	ldi	r18, 0x68	; 104
    11a8:	30 e0       	ldi	r19, 0x00	; 0
    11aa:	40 e0       	ldi	r20, 0x00	; 0
    11ac:	60 e0       	ldi	r22, 0x00	; 0
    11ae:	83 e0       	ldi	r24, 0x03	; 3
    11b0:	0e 94 21 03 	call	0x642	; 0x642 <LCD_Vid_Send_Custom_Char>
	LCD_Vid_Send_String("-----");
    11b4:	84 e8       	ldi	r24, 0x84	; 132
    11b6:	90 e0       	ldi	r25, 0x00	; 0
    11b8:	0e 94 7a 02 	call	0x4f4	; 0x4f4 <LCD_Vid_Send_String>
	LCD_Vid_Send_Custom_Char(COL10,ROW1,1,char2);
    11bc:	20 e6       	ldi	r18, 0x60	; 96
    11be:	30 e0       	ldi	r19, 0x00	; 0
    11c0:	41 e0       	ldi	r20, 0x01	; 1
    11c2:	60 e0       	ldi	r22, 0x00	; 0
    11c4:	89 e0       	ldi	r24, 0x09	; 9
    11c6:	0e 94 21 03 	call	0x642	; 0x642 <LCD_Vid_Send_Custom_Char>
	LCD_Vid_Send_String("__");
    11ca:	8a e7       	ldi	r24, 0x7A	; 122
    11cc:	90 e0       	ldi	r25, 0x00	; 0
    11ce:	0e 94 7a 02 	call	0x4f4	; 0x4f4 <LCD_Vid_Send_String>
	//_delay_ms(10);
	LCD_Vid_GotoXY(COL1,ROW1);
    11d2:	60 e0       	ldi	r22, 0x00	; 0
    11d4:	80 e0       	ldi	r24, 0x00	; 0
    11d6:	0e 94 16 03 	call	0x62c	; 0x62c <LCD_Vid_GotoXY>
	LCD_Vid_Send_String("__");
    11da:	8a e7       	ldi	r24, 0x7A	; 122
    11dc:	90 e0       	ldi	r25, 0x00	; 0
    11de:	0e 94 7a 02 	call	0x4f4	; 0x4f4 <LCD_Vid_Send_String>
	LCD_Vid_Send_Custom_Char(COL3,ROW1,0,char1);
    11e2:	28 e6       	ldi	r18, 0x68	; 104
    11e4:	30 e0       	ldi	r19, 0x00	; 0
    11e6:	40 e0       	ldi	r20, 0x00	; 0
    11e8:	60 e0       	ldi	r22, 0x00	; 0
    11ea:	82 e0       	ldi	r24, 0x02	; 2
    11ec:	0e 94 21 03 	call	0x642	; 0x642 <LCD_Vid_Send_Custom_Char>
	LCD_Vid_Send_String("-----");
    11f0:	84 e8       	ldi	r24, 0x84	; 132
    11f2:	90 e0       	ldi	r25, 0x00	; 0
    11f4:	0e 94 7a 02 	call	0x4f4	; 0x4f4 <LCD_Vid_Send_String>
	LCD_Vid_Send_Custom_Char(COL9,ROW1,1,char2);
    11f8:	20 e6       	ldi	r18, 0x60	; 96
    11fa:	30 e0       	ldi	r19, 0x00	; 0
    11fc:	41 e0       	ldi	r20, 0x01	; 1
    11fe:	60 e0       	ldi	r22, 0x00	; 0
    1200:	88 e0       	ldi	r24, 0x08	; 8
    1202:	0e 94 21 03 	call	0x642	; 0x642 <LCD_Vid_Send_Custom_Char>
	LCD_Vid_Send_String("___");
    1206:	89 e7       	ldi	r24, 0x79	; 121
    1208:	90 e0       	ldi	r25, 0x00	; 0
    120a:	0e 94 7a 02 	call	0x4f4	; 0x4f4 <LCD_Vid_Send_String>
	//_delay_ms(10);
	LCD_Vid_GotoXY(COL1,ROW1);
    120e:	60 e0       	ldi	r22, 0x00	; 0
    1210:	80 e0       	ldi	r24, 0x00	; 0
    1212:	0e 94 16 03 	call	0x62c	; 0x62c <LCD_Vid_GotoXY>
	LCD_Vid_Send_String("_");
    1216:	8b e7       	ldi	r24, 0x7B	; 123
    1218:	90 e0       	ldi	r25, 0x00	; 0
    121a:	0e 94 7a 02 	call	0x4f4	; 0x4f4 <LCD_Vid_Send_String>
	LCD_Vid_Send_Custom_Char(COL2,ROW1,0,char1);
    121e:	28 e6       	ldi	r18, 0x68	; 104
    1220:	30 e0       	ldi	r19, 0x00	; 0
    1222:	40 e0       	ldi	r20, 0x00	; 0
    1224:	60 e0       	ldi	r22, 0x00	; 0
    1226:	81 e0       	ldi	r24, 0x01	; 1
    1228:	0e 94 21 03 	call	0x642	; 0x642 <LCD_Vid_Send_Custom_Char>
	LCD_Vid_Send_String("-----");
    122c:	84 e8       	ldi	r24, 0x84	; 132
    122e:	90 e0       	ldi	r25, 0x00	; 0
    1230:	0e 94 7a 02 	call	0x4f4	; 0x4f4 <LCD_Vid_Send_String>
	LCD_Vid_Send_Custom_Char(COL8,ROW1,1,char2);
    1234:	20 e6       	ldi	r18, 0x60	; 96
    1236:	30 e0       	ldi	r19, 0x00	; 0
    1238:	41 e0       	ldi	r20, 0x01	; 1
    123a:	60 e0       	ldi	r22, 0x00	; 0
    123c:	87 e0       	ldi	r24, 0x07	; 7
    123e:	0e 94 21 03 	call	0x642	; 0x642 <LCD_Vid_Send_Custom_Char>
	LCD_Vid_Send_String("____");
    1242:	88 e7       	ldi	r24, 0x78	; 120
    1244:	90 e0       	ldi	r25, 0x00	; 0
    1246:	0e 94 7a 02 	call	0x4f4	; 0x4f4 <LCD_Vid_Send_String>
	//_delay_ms(10);
	LCD_Vid_Send_Custom_Char(COL1,ROW1,0,char1);
    124a:	28 e6       	ldi	r18, 0x68	; 104
    124c:	30 e0       	ldi	r19, 0x00	; 0
    124e:	40 e0       	ldi	r20, 0x00	; 0
    1250:	60 e0       	ldi	r22, 0x00	; 0
    1252:	80 e0       	ldi	r24, 0x00	; 0
    1254:	0e 94 21 03 	call	0x642	; 0x642 <LCD_Vid_Send_Custom_Char>
	LCD_Vid_Send_String("-----");
    1258:	84 e8       	ldi	r24, 0x84	; 132
    125a:	90 e0       	ldi	r25, 0x00	; 0
    125c:	0e 94 7a 02 	call	0x4f4	; 0x4f4 <LCD_Vid_Send_String>
	LCD_Vid_Send_Custom_Char(COL7,ROW1,1,char2);
    1260:	20 e6       	ldi	r18, 0x60	; 96
    1262:	30 e0       	ldi	r19, 0x00	; 0
    1264:	41 e0       	ldi	r20, 0x01	; 1
    1266:	60 e0       	ldi	r22, 0x00	; 0
    1268:	86 e0       	ldi	r24, 0x06	; 6
    126a:	0e 94 21 03 	call	0x642	; 0x642 <LCD_Vid_Send_Custom_Char>
	LCD_Vid_Send_String("_____");
    126e:	87 e7       	ldi	r24, 0x77	; 119
    1270:	90 e0       	ldi	r25, 0x00	; 0
    1272:	0e 94 7a 02 	call	0x4f4	; 0x4f4 <LCD_Vid_Send_String>
	//_delay_ms(10);
	LCD_Vid_GotoXY(COL1,ROW1);
    1276:	60 e0       	ldi	r22, 0x00	; 0
    1278:	80 e0       	ldi	r24, 0x00	; 0
    127a:	0e 94 16 03 	call	0x62c	; 0x62c <LCD_Vid_GotoXY>
	LCD_Vid_Send_String("-----");
    127e:	84 e8       	ldi	r24, 0x84	; 132
    1280:	90 e0       	ldi	r25, 0x00	; 0
    1282:	0e 94 7a 02 	call	0x4f4	; 0x4f4 <LCD_Vid_Send_String>
	LCD_Vid_Send_Custom_Char(COL6,ROW1,1,char2);
    1286:	20 e6       	ldi	r18, 0x60	; 96
    1288:	30 e0       	ldi	r19, 0x00	; 0
    128a:	41 e0       	ldi	r20, 0x01	; 1
    128c:	60 e0       	ldi	r22, 0x00	; 0
    128e:	85 e0       	ldi	r24, 0x05	; 5
    1290:	0e 94 21 03 	call	0x642	; 0x642 <LCD_Vid_Send_Custom_Char>
	LCD_Vid_Send_String("_____");
    1294:	87 e7       	ldi	r24, 0x77	; 119
    1296:	90 e0       	ldi	r25, 0x00	; 0
    1298:	0e 94 7a 02 	call	0x4f4	; 0x4f4 <LCD_Vid_Send_String>
	LCD_Vid_Send_Custom_Char(COL12,ROW1,0,char1);
    129c:	28 e6       	ldi	r18, 0x68	; 104
    129e:	30 e0       	ldi	r19, 0x00	; 0
    12a0:	40 e0       	ldi	r20, 0x00	; 0
    12a2:	60 e0       	ldi	r22, 0x00	; 0
    12a4:	8b e0       	ldi	r24, 0x0B	; 11
    12a6:	0e 94 21 03 	call	0x642	; 0x642 <LCD_Vid_Send_Custom_Char>
	//_delay_ms(10);
	LCD_Vid_GotoXY(COL1,ROW1);
    12aa:	60 e0       	ldi	r22, 0x00	; 0
    12ac:	80 e0       	ldi	r24, 0x00	; 0
    12ae:	0e 94 16 03 	call	0x62c	; 0x62c <LCD_Vid_GotoXY>
	LCD_Vid_Send_String("----");
    12b2:	85 e8       	ldi	r24, 0x85	; 133
    12b4:	90 e0       	ldi	r25, 0x00	; 0
    12b6:	0e 94 7a 02 	call	0x4f4	; 0x4f4 <LCD_Vid_Send_String>
	LCD_Vid_Send_Custom_Char(COL5,ROW1,1,char2);
    12ba:	20 e6       	ldi	r18, 0x60	; 96
    12bc:	30 e0       	ldi	r19, 0x00	; 0
    12be:	41 e0       	ldi	r20, 0x01	; 1
    12c0:	60 e0       	ldi	r22, 0x00	; 0
    12c2:	84 e0       	ldi	r24, 0x04	; 4
    12c4:	0e 94 21 03 	call	0x642	; 0x642 <LCD_Vid_Send_Custom_Char>
	LCD_Vid_Send_String("_____");
    12c8:	87 e7       	ldi	r24, 0x77	; 119
    12ca:	90 e0       	ldi	r25, 0x00	; 0
    12cc:	0e 94 7a 02 	call	0x4f4	; 0x4f4 <LCD_Vid_Send_String>
	LCD_Vid_Send_Custom_Char(COL11,ROW1,0,char1);
    12d0:	28 e6       	ldi	r18, 0x68	; 104
    12d2:	30 e0       	ldi	r19, 0x00	; 0
    12d4:	40 e0       	ldi	r20, 0x00	; 0
    12d6:	60 e0       	ldi	r22, 0x00	; 0
    12d8:	8a e0       	ldi	r24, 0x0A	; 10
    12da:	0e 94 21 03 	call	0x642	; 0x642 <LCD_Vid_Send_Custom_Char>
	LCD_Vid_Send_String("-");
    12de:	88 e8       	ldi	r24, 0x88	; 136
    12e0:	90 e0       	ldi	r25, 0x00	; 0
    12e2:	0e 94 7a 02 	call	0x4f4	; 0x4f4 <LCD_Vid_Send_String>
	//_delay_ms(10);
	LCD_Vid_GotoXY(COL1,ROW1);
    12e6:	60 e0       	ldi	r22, 0x00	; 0
    12e8:	80 e0       	ldi	r24, 0x00	; 0
    12ea:	0e 94 16 03 	call	0x62c	; 0x62c <LCD_Vid_GotoXY>
	LCD_Vid_Send_String("---");
    12ee:	86 e8       	ldi	r24, 0x86	; 134
    12f0:	90 e0       	ldi	r25, 0x00	; 0
    12f2:	0e 94 7a 02 	call	0x4f4	; 0x4f4 <LCD_Vid_Send_String>
	LCD_Vid_Send_Custom_Char(COL4,ROW1,1,char2);
    12f6:	20 e6       	ldi	r18, 0x60	; 96
    12f8:	30 e0       	ldi	r19, 0x00	; 0
    12fa:	41 e0       	ldi	r20, 0x01	; 1
    12fc:	60 e0       	ldi	r22, 0x00	; 0
    12fe:	83 e0       	ldi	r24, 0x03	; 3
    1300:	0e 94 21 03 	call	0x642	; 0x642 <LCD_Vid_Send_Custom_Char>
	LCD_Vid_Send_String("_____");
    1304:	87 e7       	ldi	r24, 0x77	; 119
    1306:	90 e0       	ldi	r25, 0x00	; 0
    1308:	0e 94 7a 02 	call	0x4f4	; 0x4f4 <LCD_Vid_Send_String>
	LCD_Vid_Send_Custom_Char(COL10,ROW1,0,char1);
    130c:	28 e6       	ldi	r18, 0x68	; 104
    130e:	30 e0       	ldi	r19, 0x00	; 0
    1310:	40 e0       	ldi	r20, 0x00	; 0
    1312:	60 e0       	ldi	r22, 0x00	; 0
    1314:	89 e0       	ldi	r24, 0x09	; 9
    1316:	0e 94 21 03 	call	0x642	; 0x642 <LCD_Vid_Send_Custom_Char>
	LCD_Vid_Send_String("--");
    131a:	87 e8       	ldi	r24, 0x87	; 135
    131c:	90 e0       	ldi	r25, 0x00	; 0
    131e:	0e 94 7a 02 	call	0x4f4	; 0x4f4 <LCD_Vid_Send_String>
	//_delay_ms(10);
	LCD_Vid_GotoXY(COL1,ROW1);
    1322:	60 e0       	ldi	r22, 0x00	; 0
    1324:	80 e0       	ldi	r24, 0x00	; 0
    1326:	0e 94 16 03 	call	0x62c	; 0x62c <LCD_Vid_GotoXY>
	LCD_Vid_Send_String("--");
    132a:	87 e8       	ldi	r24, 0x87	; 135
    132c:	90 e0       	ldi	r25, 0x00	; 0
    132e:	0e 94 7a 02 	call	0x4f4	; 0x4f4 <LCD_Vid_Send_String>
	LCD_Vid_Send_Custom_Char(COL3,ROW1,1,char2);
    1332:	20 e6       	ldi	r18, 0x60	; 96
    1334:	30 e0       	ldi	r19, 0x00	; 0
    1336:	41 e0       	ldi	r20, 0x01	; 1
    1338:	60 e0       	ldi	r22, 0x00	; 0
    133a:	82 e0       	ldi	r24, 0x02	; 2
    133c:	0e 94 21 03 	call	0x642	; 0x642 <LCD_Vid_Send_Custom_Char>
	LCD_Vid_Send_String("_____");
    1340:	87 e7       	ldi	r24, 0x77	; 119
    1342:	90 e0       	ldi	r25, 0x00	; 0
    1344:	0e 94 7a 02 	call	0x4f4	; 0x4f4 <LCD_Vid_Send_String>
	LCD_Vid_Send_Custom_Char(COL9,ROW1,0,char1);
    1348:	28 e6       	ldi	r18, 0x68	; 104
    134a:	30 e0       	ldi	r19, 0x00	; 0
    134c:	40 e0       	ldi	r20, 0x00	; 0
    134e:	60 e0       	ldi	r22, 0x00	; 0
    1350:	88 e0       	ldi	r24, 0x08	; 8
    1352:	0e 94 21 03 	call	0x642	; 0x642 <LCD_Vid_Send_Custom_Char>
	LCD_Vid_Send_String("---");
    1356:	86 e8       	ldi	r24, 0x86	; 134
    1358:	90 e0       	ldi	r25, 0x00	; 0
    135a:	0e 94 7a 02 	call	0x4f4	; 0x4f4 <LCD_Vid_Send_String>
	//_delay_ms(10);
	LCD_Vid_GotoXY(COL1,ROW1);
    135e:	60 e0       	ldi	r22, 0x00	; 0
    1360:	80 e0       	ldi	r24, 0x00	; 0
    1362:	0e 94 16 03 	call	0x62c	; 0x62c <LCD_Vid_GotoXY>
	LCD_Vid_Send_String("-");
    1366:	88 e8       	ldi	r24, 0x88	; 136
    1368:	90 e0       	ldi	r25, 0x00	; 0
    136a:	0e 94 7a 02 	call	0x4f4	; 0x4f4 <LCD_Vid_Send_String>
	LCD_Vid_Send_Custom_Char(COL2,ROW1,1,char2);
    136e:	20 e6       	ldi	r18, 0x60	; 96
    1370:	30 e0       	ldi	r19, 0x00	; 0
    1372:	41 e0       	ldi	r20, 0x01	; 1
    1374:	60 e0       	ldi	r22, 0x00	; 0
    1376:	81 e0       	ldi	r24, 0x01	; 1
    1378:	0e 94 21 03 	call	0x642	; 0x642 <LCD_Vid_Send_Custom_Char>
	LCD_Vid_Send_String("_____");
    137c:	87 e7       	ldi	r24, 0x77	; 119
    137e:	90 e0       	ldi	r25, 0x00	; 0
    1380:	0e 94 7a 02 	call	0x4f4	; 0x4f4 <LCD_Vid_Send_String>
	LCD_Vid_Send_Custom_Char(COL8,ROW1,0,char1);
    1384:	28 e6       	ldi	r18, 0x68	; 104
    1386:	30 e0       	ldi	r19, 0x00	; 0
    1388:	40 e0       	ldi	r20, 0x00	; 0
    138a:	60 e0       	ldi	r22, 0x00	; 0
    138c:	87 e0       	ldi	r24, 0x07	; 7
    138e:	0e 94 21 03 	call	0x642	; 0x642 <LCD_Vid_Send_Custom_Char>
	LCD_Vid_Send_String("----");
    1392:	85 e8       	ldi	r24, 0x85	; 133
    1394:	90 e0       	ldi	r25, 0x00	; 0
    1396:	0e 94 7a 02 	call	0x4f4	; 0x4f4 <LCD_Vid_Send_String>
	//_delay_ms(10);
	LCD_Vid_Send_Custom_Char(COL1,ROW1,1,char2);
    139a:	20 e6       	ldi	r18, 0x60	; 96
    139c:	30 e0       	ldi	r19, 0x00	; 0
    139e:	41 e0       	ldi	r20, 0x01	; 1
    13a0:	60 e0       	ldi	r22, 0x00	; 0
    13a2:	80 e0       	ldi	r24, 0x00	; 0
    13a4:	0e 94 21 03 	call	0x642	; 0x642 <LCD_Vid_Send_Custom_Char>
	LCD_Vid_Send_String("_____");
    13a8:	87 e7       	ldi	r24, 0x77	; 119
    13aa:	90 e0       	ldi	r25, 0x00	; 0
    13ac:	0e 94 7a 02 	call	0x4f4	; 0x4f4 <LCD_Vid_Send_String>
	LCD_Vid_Send_Custom_Char(COL7,ROW1,0,char1);
    13b0:	28 e6       	ldi	r18, 0x68	; 104
    13b2:	30 e0       	ldi	r19, 0x00	; 0
    13b4:	40 e0       	ldi	r20, 0x00	; 0
    13b6:	60 e0       	ldi	r22, 0x00	; 0
    13b8:	86 e0       	ldi	r24, 0x06	; 6
    13ba:	0e 94 21 03 	call	0x642	; 0x642 <LCD_Vid_Send_Custom_Char>
	LCD_Vid_Send_String("-----");
    13be:	84 e8       	ldi	r24, 0x84	; 132
    13c0:	90 e0       	ldi	r25, 0x00	; 0
    13c2:	0e 94 7a 02 	call	0x4f4	; 0x4f4 <LCD_Vid_Send_String>
    13c6:	08 95       	ret

000013c8 <lcd_60>:
	//_delay_ms(10);
}
void lcd_60(){
	LCD_Vid_GotoXY(COL1,ROW1);
    13c8:	60 e0       	ldi	r22, 0x00	; 0
    13ca:	80 e0       	ldi	r24, 0x00	; 0
    13cc:	0e 94 16 03 	call	0x62c	; 0x62c <LCD_Vid_GotoXY>
	LCD_Vid_Send_String("____");
    13d0:	88 e7       	ldi	r24, 0x78	; 120
    13d2:	90 e0       	ldi	r25, 0x00	; 0
    13d4:	0e 94 7a 02 	call	0x4f4	; 0x4f4 <LCD_Vid_Send_String>
	LCD_Vid_Send_Custom_Char(COL5,ROW1,0,char1);
    13d8:	28 e6       	ldi	r18, 0x68	; 104
    13da:	30 e0       	ldi	r19, 0x00	; 0
    13dc:	40 e0       	ldi	r20, 0x00	; 0
    13de:	60 e0       	ldi	r22, 0x00	; 0
    13e0:	84 e0       	ldi	r24, 0x04	; 4
    13e2:	0e 94 21 03 	call	0x642	; 0x642 <LCD_Vid_Send_Custom_Char>
	LCD_Vid_Send_String("------");
    13e6:	83 e8       	ldi	r24, 0x83	; 131
    13e8:	90 e0       	ldi	r25, 0x00	; 0
    13ea:	0e 94 7a 02 	call	0x4f4	; 0x4f4 <LCD_Vid_Send_String>
	LCD_Vid_Send_Custom_Char(COL12,ROW1,1,char2);
    13ee:	20 e6       	ldi	r18, 0x60	; 96
    13f0:	30 e0       	ldi	r19, 0x00	; 0
    13f2:	41 e0       	ldi	r20, 0x01	; 1
    13f4:	60 e0       	ldi	r22, 0x00	; 0
    13f6:	8b e0       	ldi	r24, 0x0B	; 11
    13f8:	0e 94 21 03 	call	0x642	; 0x642 <LCD_Vid_Send_Custom_Char>
	//_delay_ms(10);
	LCD_Vid_GotoXY(COL1,ROW1);
    13fc:	60 e0       	ldi	r22, 0x00	; 0
    13fe:	80 e0       	ldi	r24, 0x00	; 0
    1400:	0e 94 16 03 	call	0x62c	; 0x62c <LCD_Vid_GotoXY>
	LCD_Vid_Send_String("___");
    1404:	89 e7       	ldi	r24, 0x79	; 121
    1406:	90 e0       	ldi	r25, 0x00	; 0
    1408:	0e 94 7a 02 	call	0x4f4	; 0x4f4 <LCD_Vid_Send_String>
	LCD_Vid_Send_Custom_Char(COL4,ROW1,0,char1);
    140c:	28 e6       	ldi	r18, 0x68	; 104
    140e:	30 e0       	ldi	r19, 0x00	; 0
    1410:	40 e0       	ldi	r20, 0x00	; 0
    1412:	60 e0       	ldi	r22, 0x00	; 0
    1414:	83 e0       	ldi	r24, 0x03	; 3
    1416:	0e 94 21 03 	call	0x642	; 0x642 <LCD_Vid_Send_Custom_Char>
	LCD_Vid_Send_String("------");
    141a:	83 e8       	ldi	r24, 0x83	; 131
    141c:	90 e0       	ldi	r25, 0x00	; 0
    141e:	0e 94 7a 02 	call	0x4f4	; 0x4f4 <LCD_Vid_Send_String>
	LCD_Vid_Send_Custom_Char(COL11,ROW1,1,char2);
    1422:	20 e6       	ldi	r18, 0x60	; 96
    1424:	30 e0       	ldi	r19, 0x00	; 0
    1426:	41 e0       	ldi	r20, 0x01	; 1
    1428:	60 e0       	ldi	r22, 0x00	; 0
    142a:	8a e0       	ldi	r24, 0x0A	; 10
    142c:	0e 94 21 03 	call	0x642	; 0x642 <LCD_Vid_Send_Custom_Char>
	LCD_Vid_Send_String("_");
    1430:	8b e7       	ldi	r24, 0x7B	; 123
    1432:	90 e0       	ldi	r25, 0x00	; 0
    1434:	0e 94 7a 02 	call	0x4f4	; 0x4f4 <LCD_Vid_Send_String>
	//_delay_ms(10);
	LCD_Vid_GotoXY(COL1,ROW1);
    1438:	60 e0       	ldi	r22, 0x00	; 0
    143a:	80 e0       	ldi	r24, 0x00	; 0
    143c:	0e 94 16 03 	call	0x62c	; 0x62c <LCD_Vid_GotoXY>
	LCD_Vid_Send_String("__");
    1440:	8a e7       	ldi	r24, 0x7A	; 122
    1442:	90 e0       	ldi	r25, 0x00	; 0
    1444:	0e 94 7a 02 	call	0x4f4	; 0x4f4 <LCD_Vid_Send_String>
	LCD_Vid_Send_Custom_Char(COL3,ROW1,0,char1);
    1448:	28 e6       	ldi	r18, 0x68	; 104
    144a:	30 e0       	ldi	r19, 0x00	; 0
    144c:	40 e0       	ldi	r20, 0x00	; 0
    144e:	60 e0       	ldi	r22, 0x00	; 0
    1450:	82 e0       	ldi	r24, 0x02	; 2
    1452:	0e 94 21 03 	call	0x642	; 0x642 <LCD_Vid_Send_Custom_Char>
	LCD_Vid_Send_String("------");
    1456:	83 e8       	ldi	r24, 0x83	; 131
    1458:	90 e0       	ldi	r25, 0x00	; 0
    145a:	0e 94 7a 02 	call	0x4f4	; 0x4f4 <LCD_Vid_Send_String>
	LCD_Vid_Send_Custom_Char(COL10,ROW1,1,char2);
    145e:	20 e6       	ldi	r18, 0x60	; 96
    1460:	30 e0       	ldi	r19, 0x00	; 0
    1462:	41 e0       	ldi	r20, 0x01	; 1
    1464:	60 e0       	ldi	r22, 0x00	; 0
    1466:	89 e0       	ldi	r24, 0x09	; 9
    1468:	0e 94 21 03 	call	0x642	; 0x642 <LCD_Vid_Send_Custom_Char>
	LCD_Vid_Send_String("__");
    146c:	8a e7       	ldi	r24, 0x7A	; 122
    146e:	90 e0       	ldi	r25, 0x00	; 0
    1470:	0e 94 7a 02 	call	0x4f4	; 0x4f4 <LCD_Vid_Send_String>
	//_delay_ms(10);
	LCD_Vid_GotoXY(COL1,ROW1);
    1474:	60 e0       	ldi	r22, 0x00	; 0
    1476:	80 e0       	ldi	r24, 0x00	; 0
    1478:	0e 94 16 03 	call	0x62c	; 0x62c <LCD_Vid_GotoXY>
	LCD_Vid_Send_String("_");
    147c:	8b e7       	ldi	r24, 0x7B	; 123
    147e:	90 e0       	ldi	r25, 0x00	; 0
    1480:	0e 94 7a 02 	call	0x4f4	; 0x4f4 <LCD_Vid_Send_String>
	LCD_Vid_Send_Custom_Char(COL2,ROW1,0,char1);
    1484:	28 e6       	ldi	r18, 0x68	; 104
    1486:	30 e0       	ldi	r19, 0x00	; 0
    1488:	40 e0       	ldi	r20, 0x00	; 0
    148a:	60 e0       	ldi	r22, 0x00	; 0
    148c:	81 e0       	ldi	r24, 0x01	; 1
    148e:	0e 94 21 03 	call	0x642	; 0x642 <LCD_Vid_Send_Custom_Char>
	LCD_Vid_Send_String("------");
    1492:	83 e8       	ldi	r24, 0x83	; 131
    1494:	90 e0       	ldi	r25, 0x00	; 0
    1496:	0e 94 7a 02 	call	0x4f4	; 0x4f4 <LCD_Vid_Send_String>
	LCD_Vid_Send_Custom_Char(COL9,ROW1,1,char2);
    149a:	20 e6       	ldi	r18, 0x60	; 96
    149c:	30 e0       	ldi	r19, 0x00	; 0
    149e:	41 e0       	ldi	r20, 0x01	; 1
    14a0:	60 e0       	ldi	r22, 0x00	; 0
    14a2:	88 e0       	ldi	r24, 0x08	; 8
    14a4:	0e 94 21 03 	call	0x642	; 0x642 <LCD_Vid_Send_Custom_Char>
	LCD_Vid_Send_String("___");
    14a8:	89 e7       	ldi	r24, 0x79	; 121
    14aa:	90 e0       	ldi	r25, 0x00	; 0
    14ac:	0e 94 7a 02 	call	0x4f4	; 0x4f4 <LCD_Vid_Send_String>
	//_delay_ms(10);
	LCD_Vid_Send_Custom_Char(COL1,ROW1,0,char1);
    14b0:	28 e6       	ldi	r18, 0x68	; 104
    14b2:	30 e0       	ldi	r19, 0x00	; 0
    14b4:	40 e0       	ldi	r20, 0x00	; 0
    14b6:	60 e0       	ldi	r22, 0x00	; 0
    14b8:	80 e0       	ldi	r24, 0x00	; 0
    14ba:	0e 94 21 03 	call	0x642	; 0x642 <LCD_Vid_Send_Custom_Char>
	LCD_Vid_Send_String("------");
    14be:	83 e8       	ldi	r24, 0x83	; 131
    14c0:	90 e0       	ldi	r25, 0x00	; 0
    14c2:	0e 94 7a 02 	call	0x4f4	; 0x4f4 <LCD_Vid_Send_String>
	LCD_Vid_Send_Custom_Char(COL8,ROW1,1,char2);
    14c6:	20 e6       	ldi	r18, 0x60	; 96
    14c8:	30 e0       	ldi	r19, 0x00	; 0
    14ca:	41 e0       	ldi	r20, 0x01	; 1
    14cc:	60 e0       	ldi	r22, 0x00	; 0
    14ce:	87 e0       	ldi	r24, 0x07	; 7
    14d0:	0e 94 21 03 	call	0x642	; 0x642 <LCD_Vid_Send_Custom_Char>
	LCD_Vid_Send_String("____");
    14d4:	88 e7       	ldi	r24, 0x78	; 120
    14d6:	90 e0       	ldi	r25, 0x00	; 0
    14d8:	0e 94 7a 02 	call	0x4f4	; 0x4f4 <LCD_Vid_Send_String>
	//_delay_ms(10);
	LCD_Vid_GotoXY(COL1,ROW1);
    14dc:	60 e0       	ldi	r22, 0x00	; 0
    14de:	80 e0       	ldi	r24, 0x00	; 0
    14e0:	0e 94 16 03 	call	0x62c	; 0x62c <LCD_Vid_GotoXY>
	LCD_Vid_Send_String("------");
    14e4:	83 e8       	ldi	r24, 0x83	; 131
    14e6:	90 e0       	ldi	r25, 0x00	; 0
    14e8:	0e 94 7a 02 	call	0x4f4	; 0x4f4 <LCD_Vid_Send_String>
	LCD_Vid_Send_Custom_Char(COL7,ROW1,1,char2);
    14ec:	20 e6       	ldi	r18, 0x60	; 96
    14ee:	30 e0       	ldi	r19, 0x00	; 0
    14f0:	41 e0       	ldi	r20, 0x01	; 1
    14f2:	60 e0       	ldi	r22, 0x00	; 0
    14f4:	86 e0       	ldi	r24, 0x06	; 6
    14f6:	0e 94 21 03 	call	0x642	; 0x642 <LCD_Vid_Send_Custom_Char>
	LCD_Vid_Send_String("____");
    14fa:	88 e7       	ldi	r24, 0x78	; 120
    14fc:	90 e0       	ldi	r25, 0x00	; 0
    14fe:	0e 94 7a 02 	call	0x4f4	; 0x4f4 <LCD_Vid_Send_String>
	LCD_Vid_Send_Custom_Char(COL12,ROW1,0,char1);
    1502:	28 e6       	ldi	r18, 0x68	; 104
    1504:	30 e0       	ldi	r19, 0x00	; 0
    1506:	40 e0       	ldi	r20, 0x00	; 0
    1508:	60 e0       	ldi	r22, 0x00	; 0
    150a:	8b e0       	ldi	r24, 0x0B	; 11
    150c:	0e 94 21 03 	call	0x642	; 0x642 <LCD_Vid_Send_Custom_Char>
	//_delay_ms(10);
	LCD_Vid_GotoXY(COL1,ROW1);
    1510:	60 e0       	ldi	r22, 0x00	; 0
    1512:	80 e0       	ldi	r24, 0x00	; 0
    1514:	0e 94 16 03 	call	0x62c	; 0x62c <LCD_Vid_GotoXY>
	LCD_Vid_Send_String("-----");
    1518:	84 e8       	ldi	r24, 0x84	; 132
    151a:	90 e0       	ldi	r25, 0x00	; 0
    151c:	0e 94 7a 02 	call	0x4f4	; 0x4f4 <LCD_Vid_Send_String>
	LCD_Vid_Send_Custom_Char(COL6,ROW1,1,char2);
    1520:	20 e6       	ldi	r18, 0x60	; 96
    1522:	30 e0       	ldi	r19, 0x00	; 0
    1524:	41 e0       	ldi	r20, 0x01	; 1
    1526:	60 e0       	ldi	r22, 0x00	; 0
    1528:	85 e0       	ldi	r24, 0x05	; 5
    152a:	0e 94 21 03 	call	0x642	; 0x642 <LCD_Vid_Send_Custom_Char>
	LCD_Vid_Send_String("____");
    152e:	88 e7       	ldi	r24, 0x78	; 120
    1530:	90 e0       	ldi	r25, 0x00	; 0
    1532:	0e 94 7a 02 	call	0x4f4	; 0x4f4 <LCD_Vid_Send_String>
	LCD_Vid_Send_Custom_Char(COL11,ROW1,0,char1);
    1536:	28 e6       	ldi	r18, 0x68	; 104
    1538:	30 e0       	ldi	r19, 0x00	; 0
    153a:	40 e0       	ldi	r20, 0x00	; 0
    153c:	60 e0       	ldi	r22, 0x00	; 0
    153e:	8a e0       	ldi	r24, 0x0A	; 10
    1540:	0e 94 21 03 	call	0x642	; 0x642 <LCD_Vid_Send_Custom_Char>
	LCD_Vid_Send_String("-");
    1544:	88 e8       	ldi	r24, 0x88	; 136
    1546:	90 e0       	ldi	r25, 0x00	; 0
    1548:	0e 94 7a 02 	call	0x4f4	; 0x4f4 <LCD_Vid_Send_String>
	//_delay_ms(10);
	LCD_Vid_GotoXY(COL1,ROW1);
    154c:	60 e0       	ldi	r22, 0x00	; 0
    154e:	80 e0       	ldi	r24, 0x00	; 0
    1550:	0e 94 16 03 	call	0x62c	; 0x62c <LCD_Vid_GotoXY>
	LCD_Vid_Send_String("----");
    1554:	85 e8       	ldi	r24, 0x85	; 133
    1556:	90 e0       	ldi	r25, 0x00	; 0
    1558:	0e 94 7a 02 	call	0x4f4	; 0x4f4 <LCD_Vid_Send_String>
	LCD_Vid_Send_Custom_Char(COL5,ROW1,1,char2);
    155c:	20 e6       	ldi	r18, 0x60	; 96
    155e:	30 e0       	ldi	r19, 0x00	; 0
    1560:	41 e0       	ldi	r20, 0x01	; 1
    1562:	60 e0       	ldi	r22, 0x00	; 0
    1564:	84 e0       	ldi	r24, 0x04	; 4
    1566:	0e 94 21 03 	call	0x642	; 0x642 <LCD_Vid_Send_Custom_Char>
	LCD_Vid_Send_String("____");
    156a:	88 e7       	ldi	r24, 0x78	; 120
    156c:	90 e0       	ldi	r25, 0x00	; 0
    156e:	0e 94 7a 02 	call	0x4f4	; 0x4f4 <LCD_Vid_Send_String>
	LCD_Vid_Send_Custom_Char(COL10,ROW1,0,char1);
    1572:	28 e6       	ldi	r18, 0x68	; 104
    1574:	30 e0       	ldi	r19, 0x00	; 0
    1576:	40 e0       	ldi	r20, 0x00	; 0
    1578:	60 e0       	ldi	r22, 0x00	; 0
    157a:	89 e0       	ldi	r24, 0x09	; 9
    157c:	0e 94 21 03 	call	0x642	; 0x642 <LCD_Vid_Send_Custom_Char>
	LCD_Vid_Send_String("--");
    1580:	87 e8       	ldi	r24, 0x87	; 135
    1582:	90 e0       	ldi	r25, 0x00	; 0
    1584:	0e 94 7a 02 	call	0x4f4	; 0x4f4 <LCD_Vid_Send_String>
	//_delay_ms(10);
	LCD_Vid_GotoXY(COL1,ROW1);
    1588:	60 e0       	ldi	r22, 0x00	; 0
    158a:	80 e0       	ldi	r24, 0x00	; 0
    158c:	0e 94 16 03 	call	0x62c	; 0x62c <LCD_Vid_GotoXY>
	LCD_Vid_Send_String("---");
    1590:	86 e8       	ldi	r24, 0x86	; 134
    1592:	90 e0       	ldi	r25, 0x00	; 0
    1594:	0e 94 7a 02 	call	0x4f4	; 0x4f4 <LCD_Vid_Send_String>
	LCD_Vid_Send_Custom_Char(COL4,ROW1,1,char2);
    1598:	20 e6       	ldi	r18, 0x60	; 96
    159a:	30 e0       	ldi	r19, 0x00	; 0
    159c:	41 e0       	ldi	r20, 0x01	; 1
    159e:	60 e0       	ldi	r22, 0x00	; 0
    15a0:	83 e0       	ldi	r24, 0x03	; 3
    15a2:	0e 94 21 03 	call	0x642	; 0x642 <LCD_Vid_Send_Custom_Char>
	LCD_Vid_Send_String("____");
    15a6:	88 e7       	ldi	r24, 0x78	; 120
    15a8:	90 e0       	ldi	r25, 0x00	; 0
    15aa:	0e 94 7a 02 	call	0x4f4	; 0x4f4 <LCD_Vid_Send_String>
	LCD_Vid_Send_Custom_Char(COL9,ROW1,0,char1);
    15ae:	28 e6       	ldi	r18, 0x68	; 104
    15b0:	30 e0       	ldi	r19, 0x00	; 0
    15b2:	40 e0       	ldi	r20, 0x00	; 0
    15b4:	60 e0       	ldi	r22, 0x00	; 0
    15b6:	88 e0       	ldi	r24, 0x08	; 8
    15b8:	0e 94 21 03 	call	0x642	; 0x642 <LCD_Vid_Send_Custom_Char>
	LCD_Vid_Send_String("---");
    15bc:	86 e8       	ldi	r24, 0x86	; 134
    15be:	90 e0       	ldi	r25, 0x00	; 0
    15c0:	0e 94 7a 02 	call	0x4f4	; 0x4f4 <LCD_Vid_Send_String>
	//_delay_ms(10);
	LCD_Vid_GotoXY(COL1,ROW1);
    15c4:	60 e0       	ldi	r22, 0x00	; 0
    15c6:	80 e0       	ldi	r24, 0x00	; 0
    15c8:	0e 94 16 03 	call	0x62c	; 0x62c <LCD_Vid_GotoXY>
	LCD_Vid_Send_String("--");
    15cc:	87 e8       	ldi	r24, 0x87	; 135
    15ce:	90 e0       	ldi	r25, 0x00	; 0
    15d0:	0e 94 7a 02 	call	0x4f4	; 0x4f4 <LCD_Vid_Send_String>
	LCD_Vid_Send_Custom_Char(COL3,ROW1,1,char2);
    15d4:	20 e6       	ldi	r18, 0x60	; 96
    15d6:	30 e0       	ldi	r19, 0x00	; 0
    15d8:	41 e0       	ldi	r20, 0x01	; 1
    15da:	60 e0       	ldi	r22, 0x00	; 0
    15dc:	82 e0       	ldi	r24, 0x02	; 2
    15de:	0e 94 21 03 	call	0x642	; 0x642 <LCD_Vid_Send_Custom_Char>
	LCD_Vid_Send_String("____");
    15e2:	88 e7       	ldi	r24, 0x78	; 120
    15e4:	90 e0       	ldi	r25, 0x00	; 0
    15e6:	0e 94 7a 02 	call	0x4f4	; 0x4f4 <LCD_Vid_Send_String>
	LCD_Vid_Send_Custom_Char(COL8,ROW1,0,char1);
    15ea:	28 e6       	ldi	r18, 0x68	; 104
    15ec:	30 e0       	ldi	r19, 0x00	; 0
    15ee:	40 e0       	ldi	r20, 0x00	; 0
    15f0:	60 e0       	ldi	r22, 0x00	; 0
    15f2:	87 e0       	ldi	r24, 0x07	; 7
    15f4:	0e 94 21 03 	call	0x642	; 0x642 <LCD_Vid_Send_Custom_Char>
	LCD_Vid_Send_String("----");
    15f8:	85 e8       	ldi	r24, 0x85	; 133
    15fa:	90 e0       	ldi	r25, 0x00	; 0
    15fc:	0e 94 7a 02 	call	0x4f4	; 0x4f4 <LCD_Vid_Send_String>
	//_delay_ms(10);
	LCD_Vid_GotoXY(COL1,ROW1);
    1600:	60 e0       	ldi	r22, 0x00	; 0
    1602:	80 e0       	ldi	r24, 0x00	; 0
    1604:	0e 94 16 03 	call	0x62c	; 0x62c <LCD_Vid_GotoXY>
	LCD_Vid_Send_String("-");
    1608:	88 e8       	ldi	r24, 0x88	; 136
    160a:	90 e0       	ldi	r25, 0x00	; 0
    160c:	0e 94 7a 02 	call	0x4f4	; 0x4f4 <LCD_Vid_Send_String>
	LCD_Vid_Send_Custom_Char(COL2,ROW1,1,char2);
    1610:	20 e6       	ldi	r18, 0x60	; 96
    1612:	30 e0       	ldi	r19, 0x00	; 0
    1614:	41 e0       	ldi	r20, 0x01	; 1
    1616:	60 e0       	ldi	r22, 0x00	; 0
    1618:	81 e0       	ldi	r24, 0x01	; 1
    161a:	0e 94 21 03 	call	0x642	; 0x642 <LCD_Vid_Send_Custom_Char>
	LCD_Vid_Send_String("____");
    161e:	88 e7       	ldi	r24, 0x78	; 120
    1620:	90 e0       	ldi	r25, 0x00	; 0
    1622:	0e 94 7a 02 	call	0x4f4	; 0x4f4 <LCD_Vid_Send_String>
	LCD_Vid_Send_Custom_Char(COL7,ROW1,0,char1);
    1626:	28 e6       	ldi	r18, 0x68	; 104
    1628:	30 e0       	ldi	r19, 0x00	; 0
    162a:	40 e0       	ldi	r20, 0x00	; 0
    162c:	60 e0       	ldi	r22, 0x00	; 0
    162e:	86 e0       	ldi	r24, 0x06	; 6
    1630:	0e 94 21 03 	call	0x642	; 0x642 <LCD_Vid_Send_Custom_Char>
	LCD_Vid_Send_String("-----");
    1634:	84 e8       	ldi	r24, 0x84	; 132
    1636:	90 e0       	ldi	r25, 0x00	; 0
    1638:	0e 94 7a 02 	call	0x4f4	; 0x4f4 <LCD_Vid_Send_String>
	//_delay_ms(10);
	LCD_Vid_Send_Custom_Char(COL1,ROW1,1,char2);
    163c:	20 e6       	ldi	r18, 0x60	; 96
    163e:	30 e0       	ldi	r19, 0x00	; 0
    1640:	41 e0       	ldi	r20, 0x01	; 1
    1642:	60 e0       	ldi	r22, 0x00	; 0
    1644:	80 e0       	ldi	r24, 0x00	; 0
    1646:	0e 94 21 03 	call	0x642	; 0x642 <LCD_Vid_Send_Custom_Char>
	LCD_Vid_Send_String("____");
    164a:	88 e7       	ldi	r24, 0x78	; 120
    164c:	90 e0       	ldi	r25, 0x00	; 0
    164e:	0e 94 7a 02 	call	0x4f4	; 0x4f4 <LCD_Vid_Send_String>
	LCD_Vid_Send_Custom_Char(COL6,ROW1,0,char1);
    1652:	28 e6       	ldi	r18, 0x68	; 104
    1654:	30 e0       	ldi	r19, 0x00	; 0
    1656:	40 e0       	ldi	r20, 0x00	; 0
    1658:	60 e0       	ldi	r22, 0x00	; 0
    165a:	85 e0       	ldi	r24, 0x05	; 5
    165c:	0e 94 21 03 	call	0x642	; 0x642 <LCD_Vid_Send_Custom_Char>
	LCD_Vid_Send_String("------");
    1660:	83 e8       	ldi	r24, 0x83	; 131
    1662:	90 e0       	ldi	r25, 0x00	; 0
    1664:	0e 94 7a 02 	call	0x4f4	; 0x4f4 <LCD_Vid_Send_String>
    1668:	08 95       	ret

0000166a <lcd_70>:
	//_delay_ms(10);
}
void lcd_70(){
	LCD_Vid_GotoXY(COL1,ROW1);
    166a:	60 e0       	ldi	r22, 0x00	; 0
    166c:	80 e0       	ldi	r24, 0x00	; 0
    166e:	0e 94 16 03 	call	0x62c	; 0x62c <LCD_Vid_GotoXY>
	LCD_Vid_Send_String("___");
    1672:	89 e7       	ldi	r24, 0x79	; 121
    1674:	90 e0       	ldi	r25, 0x00	; 0
    1676:	0e 94 7a 02 	call	0x4f4	; 0x4f4 <LCD_Vid_Send_String>
	LCD_Vid_Send_Custom_Char(COL4,ROW1,0,char1);
    167a:	28 e6       	ldi	r18, 0x68	; 104
    167c:	30 e0       	ldi	r19, 0x00	; 0
    167e:	40 e0       	ldi	r20, 0x00	; 0
    1680:	60 e0       	ldi	r22, 0x00	; 0
    1682:	83 e0       	ldi	r24, 0x03	; 3
    1684:	0e 94 21 03 	call	0x642	; 0x642 <LCD_Vid_Send_Custom_Char>
	LCD_Vid_Send_String("-------");
    1688:	82 e8       	ldi	r24, 0x82	; 130
    168a:	90 e0       	ldi	r25, 0x00	; 0
    168c:	0e 94 7a 02 	call	0x4f4	; 0x4f4 <LCD_Vid_Send_String>
	LCD_Vid_Send_Custom_Char(COL12,ROW1,1,char2);
    1690:	20 e6       	ldi	r18, 0x60	; 96
    1692:	30 e0       	ldi	r19, 0x00	; 0
    1694:	41 e0       	ldi	r20, 0x01	; 1
    1696:	60 e0       	ldi	r22, 0x00	; 0
    1698:	8b e0       	ldi	r24, 0x0B	; 11
    169a:	0e 94 21 03 	call	0x642	; 0x642 <LCD_Vid_Send_Custom_Char>
	//_delay_ms(10);
	LCD_Vid_GotoXY(COL1,ROW1);
    169e:	60 e0       	ldi	r22, 0x00	; 0
    16a0:	80 e0       	ldi	r24, 0x00	; 0
    16a2:	0e 94 16 03 	call	0x62c	; 0x62c <LCD_Vid_GotoXY>
	LCD_Vid_Send_String("__");
    16a6:	8a e7       	ldi	r24, 0x7A	; 122
    16a8:	90 e0       	ldi	r25, 0x00	; 0
    16aa:	0e 94 7a 02 	call	0x4f4	; 0x4f4 <LCD_Vid_Send_String>
	LCD_Vid_Send_Custom_Char(COL3,ROW1,0,char1);
    16ae:	28 e6       	ldi	r18, 0x68	; 104
    16b0:	30 e0       	ldi	r19, 0x00	; 0
    16b2:	40 e0       	ldi	r20, 0x00	; 0
    16b4:	60 e0       	ldi	r22, 0x00	; 0
    16b6:	82 e0       	ldi	r24, 0x02	; 2
    16b8:	0e 94 21 03 	call	0x642	; 0x642 <LCD_Vid_Send_Custom_Char>
	LCD_Vid_Send_String("-------");
    16bc:	82 e8       	ldi	r24, 0x82	; 130
    16be:	90 e0       	ldi	r25, 0x00	; 0
    16c0:	0e 94 7a 02 	call	0x4f4	; 0x4f4 <LCD_Vid_Send_String>
	LCD_Vid_Send_Custom_Char(COL11,ROW1,1,char2);
    16c4:	20 e6       	ldi	r18, 0x60	; 96
    16c6:	30 e0       	ldi	r19, 0x00	; 0
    16c8:	41 e0       	ldi	r20, 0x01	; 1
    16ca:	60 e0       	ldi	r22, 0x00	; 0
    16cc:	8a e0       	ldi	r24, 0x0A	; 10
    16ce:	0e 94 21 03 	call	0x642	; 0x642 <LCD_Vid_Send_Custom_Char>
	LCD_Vid_Send_String("_");
    16d2:	8b e7       	ldi	r24, 0x7B	; 123
    16d4:	90 e0       	ldi	r25, 0x00	; 0
    16d6:	0e 94 7a 02 	call	0x4f4	; 0x4f4 <LCD_Vid_Send_String>
	//_delay_ms(10);
	LCD_Vid_GotoXY(COL1,ROW1);
    16da:	60 e0       	ldi	r22, 0x00	; 0
    16dc:	80 e0       	ldi	r24, 0x00	; 0
    16de:	0e 94 16 03 	call	0x62c	; 0x62c <LCD_Vid_GotoXY>
	LCD_Vid_Send_String("_");
    16e2:	8b e7       	ldi	r24, 0x7B	; 123
    16e4:	90 e0       	ldi	r25, 0x00	; 0
    16e6:	0e 94 7a 02 	call	0x4f4	; 0x4f4 <LCD_Vid_Send_String>
	LCD_Vid_Send_Custom_Char(COL2,ROW1,0,char1);
    16ea:	28 e6       	ldi	r18, 0x68	; 104
    16ec:	30 e0       	ldi	r19, 0x00	; 0
    16ee:	40 e0       	ldi	r20, 0x00	; 0
    16f0:	60 e0       	ldi	r22, 0x00	; 0
    16f2:	81 e0       	ldi	r24, 0x01	; 1
    16f4:	0e 94 21 03 	call	0x642	; 0x642 <LCD_Vid_Send_Custom_Char>
	LCD_Vid_Send_String("-------");
    16f8:	82 e8       	ldi	r24, 0x82	; 130
    16fa:	90 e0       	ldi	r25, 0x00	; 0
    16fc:	0e 94 7a 02 	call	0x4f4	; 0x4f4 <LCD_Vid_Send_String>
	LCD_Vid_Send_Custom_Char(COL10,ROW1,1,char2);
    1700:	20 e6       	ldi	r18, 0x60	; 96
    1702:	30 e0       	ldi	r19, 0x00	; 0
    1704:	41 e0       	ldi	r20, 0x01	; 1
    1706:	60 e0       	ldi	r22, 0x00	; 0
    1708:	89 e0       	ldi	r24, 0x09	; 9
    170a:	0e 94 21 03 	call	0x642	; 0x642 <LCD_Vid_Send_Custom_Char>
	LCD_Vid_Send_String("__");
    170e:	8a e7       	ldi	r24, 0x7A	; 122
    1710:	90 e0       	ldi	r25, 0x00	; 0
    1712:	0e 94 7a 02 	call	0x4f4	; 0x4f4 <LCD_Vid_Send_String>
	//_delay_ms(10);
	LCD_Vid_Send_Custom_Char(COL1,ROW1,0,char1);
    1716:	28 e6       	ldi	r18, 0x68	; 104
    1718:	30 e0       	ldi	r19, 0x00	; 0
    171a:	40 e0       	ldi	r20, 0x00	; 0
    171c:	60 e0       	ldi	r22, 0x00	; 0
    171e:	80 e0       	ldi	r24, 0x00	; 0
    1720:	0e 94 21 03 	call	0x642	; 0x642 <LCD_Vid_Send_Custom_Char>
	LCD_Vid_Send_String("-------");
    1724:	82 e8       	ldi	r24, 0x82	; 130
    1726:	90 e0       	ldi	r25, 0x00	; 0
    1728:	0e 94 7a 02 	call	0x4f4	; 0x4f4 <LCD_Vid_Send_String>
	LCD_Vid_Send_Custom_Char(COL9,ROW1,1,char2);
    172c:	20 e6       	ldi	r18, 0x60	; 96
    172e:	30 e0       	ldi	r19, 0x00	; 0
    1730:	41 e0       	ldi	r20, 0x01	; 1
    1732:	60 e0       	ldi	r22, 0x00	; 0
    1734:	88 e0       	ldi	r24, 0x08	; 8
    1736:	0e 94 21 03 	call	0x642	; 0x642 <LCD_Vid_Send_Custom_Char>
	LCD_Vid_Send_String("___");
    173a:	89 e7       	ldi	r24, 0x79	; 121
    173c:	90 e0       	ldi	r25, 0x00	; 0
    173e:	0e 94 7a 02 	call	0x4f4	; 0x4f4 <LCD_Vid_Send_String>
	//_delay_ms(10);
	LCD_Vid_GotoXY(COL1,ROW1);
    1742:	60 e0       	ldi	r22, 0x00	; 0
    1744:	80 e0       	ldi	r24, 0x00	; 0
    1746:	0e 94 16 03 	call	0x62c	; 0x62c <LCD_Vid_GotoXY>
	LCD_Vid_Send_String("-------");
    174a:	82 e8       	ldi	r24, 0x82	; 130
    174c:	90 e0       	ldi	r25, 0x00	; 0
    174e:	0e 94 7a 02 	call	0x4f4	; 0x4f4 <LCD_Vid_Send_String>
	LCD_Vid_Send_Custom_Char(COL8,ROW1,1,char2);
    1752:	20 e6       	ldi	r18, 0x60	; 96
    1754:	30 e0       	ldi	r19, 0x00	; 0
    1756:	41 e0       	ldi	r20, 0x01	; 1
    1758:	60 e0       	ldi	r22, 0x00	; 0
    175a:	87 e0       	ldi	r24, 0x07	; 7
    175c:	0e 94 21 03 	call	0x642	; 0x642 <LCD_Vid_Send_Custom_Char>
	LCD_Vid_Send_String("___");
    1760:	89 e7       	ldi	r24, 0x79	; 121
    1762:	90 e0       	ldi	r25, 0x00	; 0
    1764:	0e 94 7a 02 	call	0x4f4	; 0x4f4 <LCD_Vid_Send_String>
	LCD_Vid_Send_Custom_Char(COL12,ROW1,0,char1);
    1768:	28 e6       	ldi	r18, 0x68	; 104
    176a:	30 e0       	ldi	r19, 0x00	; 0
    176c:	40 e0       	ldi	r20, 0x00	; 0
    176e:	60 e0       	ldi	r22, 0x00	; 0
    1770:	8b e0       	ldi	r24, 0x0B	; 11
    1772:	0e 94 21 03 	call	0x642	; 0x642 <LCD_Vid_Send_Custom_Char>
	//_delay_ms(10);
	LCD_Vid_GotoXY(COL1,ROW1);
    1776:	60 e0       	ldi	r22, 0x00	; 0
    1778:	80 e0       	ldi	r24, 0x00	; 0
    177a:	0e 94 16 03 	call	0x62c	; 0x62c <LCD_Vid_GotoXY>
	LCD_Vid_Send_String("------");
    177e:	83 e8       	ldi	r24, 0x83	; 131
    1780:	90 e0       	ldi	r25, 0x00	; 0
    1782:	0e 94 7a 02 	call	0x4f4	; 0x4f4 <LCD_Vid_Send_String>
	LCD_Vid_Send_Custom_Char(COL7,ROW1,1,char2);
    1786:	20 e6       	ldi	r18, 0x60	; 96
    1788:	30 e0       	ldi	r19, 0x00	; 0
    178a:	41 e0       	ldi	r20, 0x01	; 1
    178c:	60 e0       	ldi	r22, 0x00	; 0
    178e:	86 e0       	ldi	r24, 0x06	; 6
    1790:	0e 94 21 03 	call	0x642	; 0x642 <LCD_Vid_Send_Custom_Char>
	LCD_Vid_Send_String("___");
    1794:	89 e7       	ldi	r24, 0x79	; 121
    1796:	90 e0       	ldi	r25, 0x00	; 0
    1798:	0e 94 7a 02 	call	0x4f4	; 0x4f4 <LCD_Vid_Send_String>
	LCD_Vid_Send_Custom_Char(COL11,ROW1,0,char1);
    179c:	28 e6       	ldi	r18, 0x68	; 104
    179e:	30 e0       	ldi	r19, 0x00	; 0
    17a0:	40 e0       	ldi	r20, 0x00	; 0
    17a2:	60 e0       	ldi	r22, 0x00	; 0
    17a4:	8a e0       	ldi	r24, 0x0A	; 10
    17a6:	0e 94 21 03 	call	0x642	; 0x642 <LCD_Vid_Send_Custom_Char>
	LCD_Vid_Send_String("-");
    17aa:	88 e8       	ldi	r24, 0x88	; 136
    17ac:	90 e0       	ldi	r25, 0x00	; 0
    17ae:	0e 94 7a 02 	call	0x4f4	; 0x4f4 <LCD_Vid_Send_String>
	//_delay_ms(10);
	LCD_Vid_GotoXY(COL1,ROW1);
    17b2:	60 e0       	ldi	r22, 0x00	; 0
    17b4:	80 e0       	ldi	r24, 0x00	; 0
    17b6:	0e 94 16 03 	call	0x62c	; 0x62c <LCD_Vid_GotoXY>
	LCD_Vid_Send_String("-----");
    17ba:	84 e8       	ldi	r24, 0x84	; 132
    17bc:	90 e0       	ldi	r25, 0x00	; 0
    17be:	0e 94 7a 02 	call	0x4f4	; 0x4f4 <LCD_Vid_Send_String>
	LCD_Vid_Send_Custom_Char(COL6,ROW1,1,char2);
    17c2:	20 e6       	ldi	r18, 0x60	; 96
    17c4:	30 e0       	ldi	r19, 0x00	; 0
    17c6:	41 e0       	ldi	r20, 0x01	; 1
    17c8:	60 e0       	ldi	r22, 0x00	; 0
    17ca:	85 e0       	ldi	r24, 0x05	; 5
    17cc:	0e 94 21 03 	call	0x642	; 0x642 <LCD_Vid_Send_Custom_Char>
	LCD_Vid_Send_String("___");
    17d0:	89 e7       	ldi	r24, 0x79	; 121
    17d2:	90 e0       	ldi	r25, 0x00	; 0
    17d4:	0e 94 7a 02 	call	0x4f4	; 0x4f4 <LCD_Vid_Send_String>
	LCD_Vid_Send_Custom_Char(COL10,ROW1,0,char1);
    17d8:	28 e6       	ldi	r18, 0x68	; 104
    17da:	30 e0       	ldi	r19, 0x00	; 0
    17dc:	40 e0       	ldi	r20, 0x00	; 0
    17de:	60 e0       	ldi	r22, 0x00	; 0
    17e0:	89 e0       	ldi	r24, 0x09	; 9
    17e2:	0e 94 21 03 	call	0x642	; 0x642 <LCD_Vid_Send_Custom_Char>
	LCD_Vid_Send_String("--");
    17e6:	87 e8       	ldi	r24, 0x87	; 135
    17e8:	90 e0       	ldi	r25, 0x00	; 0
    17ea:	0e 94 7a 02 	call	0x4f4	; 0x4f4 <LCD_Vid_Send_String>
	//_delay_ms(10);
	LCD_Vid_GotoXY(COL1,ROW1);
    17ee:	60 e0       	ldi	r22, 0x00	; 0
    17f0:	80 e0       	ldi	r24, 0x00	; 0
    17f2:	0e 94 16 03 	call	0x62c	; 0x62c <LCD_Vid_GotoXY>
	LCD_Vid_Send_String("----");
    17f6:	85 e8       	ldi	r24, 0x85	; 133
    17f8:	90 e0       	ldi	r25, 0x00	; 0
    17fa:	0e 94 7a 02 	call	0x4f4	; 0x4f4 <LCD_Vid_Send_String>
	LCD_Vid_Send_Custom_Char(COL5,ROW1,1,char2);
    17fe:	20 e6       	ldi	r18, 0x60	; 96
    1800:	30 e0       	ldi	r19, 0x00	; 0
    1802:	41 e0       	ldi	r20, 0x01	; 1
    1804:	60 e0       	ldi	r22, 0x00	; 0
    1806:	84 e0       	ldi	r24, 0x04	; 4
    1808:	0e 94 21 03 	call	0x642	; 0x642 <LCD_Vid_Send_Custom_Char>
	LCD_Vid_Send_String("___");
    180c:	89 e7       	ldi	r24, 0x79	; 121
    180e:	90 e0       	ldi	r25, 0x00	; 0
    1810:	0e 94 7a 02 	call	0x4f4	; 0x4f4 <LCD_Vid_Send_String>
	LCD_Vid_Send_Custom_Char(COL9,ROW1,0,char1);
    1814:	28 e6       	ldi	r18, 0x68	; 104
    1816:	30 e0       	ldi	r19, 0x00	; 0
    1818:	40 e0       	ldi	r20, 0x00	; 0
    181a:	60 e0       	ldi	r22, 0x00	; 0
    181c:	88 e0       	ldi	r24, 0x08	; 8
    181e:	0e 94 21 03 	call	0x642	; 0x642 <LCD_Vid_Send_Custom_Char>
	LCD_Vid_Send_String("---");
    1822:	86 e8       	ldi	r24, 0x86	; 134
    1824:	90 e0       	ldi	r25, 0x00	; 0
    1826:	0e 94 7a 02 	call	0x4f4	; 0x4f4 <LCD_Vid_Send_String>
	//_delay_ms(10);
	LCD_Vid_GotoXY(COL1,ROW1);
    182a:	60 e0       	ldi	r22, 0x00	; 0
    182c:	80 e0       	ldi	r24, 0x00	; 0
    182e:	0e 94 16 03 	call	0x62c	; 0x62c <LCD_Vid_GotoXY>
	LCD_Vid_Send_String("---");
    1832:	86 e8       	ldi	r24, 0x86	; 134
    1834:	90 e0       	ldi	r25, 0x00	; 0
    1836:	0e 94 7a 02 	call	0x4f4	; 0x4f4 <LCD_Vid_Send_String>
	LCD_Vid_Send_Custom_Char(COL4,ROW1,1,char2);
    183a:	20 e6       	ldi	r18, 0x60	; 96
    183c:	30 e0       	ldi	r19, 0x00	; 0
    183e:	41 e0       	ldi	r20, 0x01	; 1
    1840:	60 e0       	ldi	r22, 0x00	; 0
    1842:	83 e0       	ldi	r24, 0x03	; 3
    1844:	0e 94 21 03 	call	0x642	; 0x642 <LCD_Vid_Send_Custom_Char>
	LCD_Vid_Send_String("___");
    1848:	89 e7       	ldi	r24, 0x79	; 121
    184a:	90 e0       	ldi	r25, 0x00	; 0
    184c:	0e 94 7a 02 	call	0x4f4	; 0x4f4 <LCD_Vid_Send_String>
	LCD_Vid_Send_Custom_Char(COL8,ROW1,0,char1);
    1850:	28 e6       	ldi	r18, 0x68	; 104
    1852:	30 e0       	ldi	r19, 0x00	; 0
    1854:	40 e0       	ldi	r20, 0x00	; 0
    1856:	60 e0       	ldi	r22, 0x00	; 0
    1858:	87 e0       	ldi	r24, 0x07	; 7
    185a:	0e 94 21 03 	call	0x642	; 0x642 <LCD_Vid_Send_Custom_Char>
	LCD_Vid_Send_String("----");
    185e:	85 e8       	ldi	r24, 0x85	; 133
    1860:	90 e0       	ldi	r25, 0x00	; 0
    1862:	0e 94 7a 02 	call	0x4f4	; 0x4f4 <LCD_Vid_Send_String>
	//_delay_ms(10);
	LCD_Vid_GotoXY(COL1,ROW1);
    1866:	60 e0       	ldi	r22, 0x00	; 0
    1868:	80 e0       	ldi	r24, 0x00	; 0
    186a:	0e 94 16 03 	call	0x62c	; 0x62c <LCD_Vid_GotoXY>
	LCD_Vid_Send_String("--");
    186e:	87 e8       	ldi	r24, 0x87	; 135
    1870:	90 e0       	ldi	r25, 0x00	; 0
    1872:	0e 94 7a 02 	call	0x4f4	; 0x4f4 <LCD_Vid_Send_String>
	LCD_Vid_Send_Custom_Char(COL3,ROW1,1,char2);
    1876:	20 e6       	ldi	r18, 0x60	; 96
    1878:	30 e0       	ldi	r19, 0x00	; 0
    187a:	41 e0       	ldi	r20, 0x01	; 1
    187c:	60 e0       	ldi	r22, 0x00	; 0
    187e:	82 e0       	ldi	r24, 0x02	; 2
    1880:	0e 94 21 03 	call	0x642	; 0x642 <LCD_Vid_Send_Custom_Char>
	LCD_Vid_Send_String("___");
    1884:	89 e7       	ldi	r24, 0x79	; 121
    1886:	90 e0       	ldi	r25, 0x00	; 0
    1888:	0e 94 7a 02 	call	0x4f4	; 0x4f4 <LCD_Vid_Send_String>
	LCD_Vid_Send_Custom_Char(COL7,ROW1,0,char1);
    188c:	28 e6       	ldi	r18, 0x68	; 104
    188e:	30 e0       	ldi	r19, 0x00	; 0
    1890:	40 e0       	ldi	r20, 0x00	; 0
    1892:	60 e0       	ldi	r22, 0x00	; 0
    1894:	86 e0       	ldi	r24, 0x06	; 6
    1896:	0e 94 21 03 	call	0x642	; 0x642 <LCD_Vid_Send_Custom_Char>
	LCD_Vid_Send_String("-----");
    189a:	84 e8       	ldi	r24, 0x84	; 132
    189c:	90 e0       	ldi	r25, 0x00	; 0
    189e:	0e 94 7a 02 	call	0x4f4	; 0x4f4 <LCD_Vid_Send_String>
	//_delay_ms(10);
	LCD_Vid_GotoXY(COL1,ROW1);
    18a2:	60 e0       	ldi	r22, 0x00	; 0
    18a4:	80 e0       	ldi	r24, 0x00	; 0
    18a6:	0e 94 16 03 	call	0x62c	; 0x62c <LCD_Vid_GotoXY>
	LCD_Vid_Send_String("-");
    18aa:	88 e8       	ldi	r24, 0x88	; 136
    18ac:	90 e0       	ldi	r25, 0x00	; 0
    18ae:	0e 94 7a 02 	call	0x4f4	; 0x4f4 <LCD_Vid_Send_String>
	LCD_Vid_Send_Custom_Char(COL2,ROW1,1,char2);
    18b2:	20 e6       	ldi	r18, 0x60	; 96
    18b4:	30 e0       	ldi	r19, 0x00	; 0
    18b6:	41 e0       	ldi	r20, 0x01	; 1
    18b8:	60 e0       	ldi	r22, 0x00	; 0
    18ba:	81 e0       	ldi	r24, 0x01	; 1
    18bc:	0e 94 21 03 	call	0x642	; 0x642 <LCD_Vid_Send_Custom_Char>
	LCD_Vid_Send_String("___");
    18c0:	89 e7       	ldi	r24, 0x79	; 121
    18c2:	90 e0       	ldi	r25, 0x00	; 0
    18c4:	0e 94 7a 02 	call	0x4f4	; 0x4f4 <LCD_Vid_Send_String>
	LCD_Vid_Send_Custom_Char(COL6,ROW1,0,char1);
    18c8:	28 e6       	ldi	r18, 0x68	; 104
    18ca:	30 e0       	ldi	r19, 0x00	; 0
    18cc:	40 e0       	ldi	r20, 0x00	; 0
    18ce:	60 e0       	ldi	r22, 0x00	; 0
    18d0:	85 e0       	ldi	r24, 0x05	; 5
    18d2:	0e 94 21 03 	call	0x642	; 0x642 <LCD_Vid_Send_Custom_Char>
	LCD_Vid_Send_String("------");
    18d6:	83 e8       	ldi	r24, 0x83	; 131
    18d8:	90 e0       	ldi	r25, 0x00	; 0
    18da:	0e 94 7a 02 	call	0x4f4	; 0x4f4 <LCD_Vid_Send_String>
	//_delay_ms(10);
	LCD_Vid_Send_Custom_Char(COL1,ROW1,1,char2);
    18de:	20 e6       	ldi	r18, 0x60	; 96
    18e0:	30 e0       	ldi	r19, 0x00	; 0
    18e2:	41 e0       	ldi	r20, 0x01	; 1
    18e4:	60 e0       	ldi	r22, 0x00	; 0
    18e6:	80 e0       	ldi	r24, 0x00	; 0
    18e8:	0e 94 21 03 	call	0x642	; 0x642 <LCD_Vid_Send_Custom_Char>
	LCD_Vid_Send_String("___");
    18ec:	89 e7       	ldi	r24, 0x79	; 121
    18ee:	90 e0       	ldi	r25, 0x00	; 0
    18f0:	0e 94 7a 02 	call	0x4f4	; 0x4f4 <LCD_Vid_Send_String>
	LCD_Vid_Send_Custom_Char(COL5,ROW1,0,char1);
    18f4:	28 e6       	ldi	r18, 0x68	; 104
    18f6:	30 e0       	ldi	r19, 0x00	; 0
    18f8:	40 e0       	ldi	r20, 0x00	; 0
    18fa:	60 e0       	ldi	r22, 0x00	; 0
    18fc:	84 e0       	ldi	r24, 0x04	; 4
    18fe:	0e 94 21 03 	call	0x642	; 0x642 <LCD_Vid_Send_Custom_Char>
	LCD_Vid_Send_String("-------");
    1902:	82 e8       	ldi	r24, 0x82	; 130
    1904:	90 e0       	ldi	r25, 0x00	; 0
    1906:	0e 94 7a 02 	call	0x4f4	; 0x4f4 <LCD_Vid_Send_String>
    190a:	08 95       	ret

0000190c <lcd_80>:
	//_delay_ms(10);
}
void lcd_80(){
	LCD_Vid_GotoXY(COL1,ROW1);
    190c:	60 e0       	ldi	r22, 0x00	; 0
    190e:	80 e0       	ldi	r24, 0x00	; 0
    1910:	0e 94 16 03 	call	0x62c	; 0x62c <LCD_Vid_GotoXY>
	LCD_Vid_Send_String("__");
    1914:	8a e7       	ldi	r24, 0x7A	; 122
    1916:	90 e0       	ldi	r25, 0x00	; 0
    1918:	0e 94 7a 02 	call	0x4f4	; 0x4f4 <LCD_Vid_Send_String>
	LCD_Vid_Send_Custom_Char(COL3,ROW1,0,char1);
    191c:	28 e6       	ldi	r18, 0x68	; 104
    191e:	30 e0       	ldi	r19, 0x00	; 0
    1920:	40 e0       	ldi	r20, 0x00	; 0
    1922:	60 e0       	ldi	r22, 0x00	; 0
    1924:	82 e0       	ldi	r24, 0x02	; 2
    1926:	0e 94 21 03 	call	0x642	; 0x642 <LCD_Vid_Send_Custom_Char>
	LCD_Vid_Send_String("--------");
    192a:	81 e8       	ldi	r24, 0x81	; 129
    192c:	90 e0       	ldi	r25, 0x00	; 0
    192e:	0e 94 7a 02 	call	0x4f4	; 0x4f4 <LCD_Vid_Send_String>
	LCD_Vid_Send_Custom_Char(COL12,ROW1,1,char2);
    1932:	20 e6       	ldi	r18, 0x60	; 96
    1934:	30 e0       	ldi	r19, 0x00	; 0
    1936:	41 e0       	ldi	r20, 0x01	; 1
    1938:	60 e0       	ldi	r22, 0x00	; 0
    193a:	8b e0       	ldi	r24, 0x0B	; 11
    193c:	0e 94 21 03 	call	0x642	; 0x642 <LCD_Vid_Send_Custom_Char>
	//_delay_ms(10);
	LCD_Vid_GotoXY(COL1,ROW1);
    1940:	60 e0       	ldi	r22, 0x00	; 0
    1942:	80 e0       	ldi	r24, 0x00	; 0
    1944:	0e 94 16 03 	call	0x62c	; 0x62c <LCD_Vid_GotoXY>
	LCD_Vid_Send_String("_");
    1948:	8b e7       	ldi	r24, 0x7B	; 123
    194a:	90 e0       	ldi	r25, 0x00	; 0
    194c:	0e 94 7a 02 	call	0x4f4	; 0x4f4 <LCD_Vid_Send_String>
	LCD_Vid_Send_Custom_Char(COL2,ROW1,0,char1);
    1950:	28 e6       	ldi	r18, 0x68	; 104
    1952:	30 e0       	ldi	r19, 0x00	; 0
    1954:	40 e0       	ldi	r20, 0x00	; 0
    1956:	60 e0       	ldi	r22, 0x00	; 0
    1958:	81 e0       	ldi	r24, 0x01	; 1
    195a:	0e 94 21 03 	call	0x642	; 0x642 <LCD_Vid_Send_Custom_Char>
	LCD_Vid_Send_String("--------");
    195e:	81 e8       	ldi	r24, 0x81	; 129
    1960:	90 e0       	ldi	r25, 0x00	; 0
    1962:	0e 94 7a 02 	call	0x4f4	; 0x4f4 <LCD_Vid_Send_String>
	LCD_Vid_Send_Custom_Char(COL11,ROW1,1,char2);
    1966:	20 e6       	ldi	r18, 0x60	; 96
    1968:	30 e0       	ldi	r19, 0x00	; 0
    196a:	41 e0       	ldi	r20, 0x01	; 1
    196c:	60 e0       	ldi	r22, 0x00	; 0
    196e:	8a e0       	ldi	r24, 0x0A	; 10
    1970:	0e 94 21 03 	call	0x642	; 0x642 <LCD_Vid_Send_Custom_Char>
	LCD_Vid_Send_String("_");
    1974:	8b e7       	ldi	r24, 0x7B	; 123
    1976:	90 e0       	ldi	r25, 0x00	; 0
    1978:	0e 94 7a 02 	call	0x4f4	; 0x4f4 <LCD_Vid_Send_String>
	//_delay_ms(10);
	LCD_Vid_Send_Custom_Char(COL1,ROW1,0,char1);
    197c:	28 e6       	ldi	r18, 0x68	; 104
    197e:	30 e0       	ldi	r19, 0x00	; 0
    1980:	40 e0       	ldi	r20, 0x00	; 0
    1982:	60 e0       	ldi	r22, 0x00	; 0
    1984:	80 e0       	ldi	r24, 0x00	; 0
    1986:	0e 94 21 03 	call	0x642	; 0x642 <LCD_Vid_Send_Custom_Char>
	LCD_Vid_Send_String("--------");
    198a:	81 e8       	ldi	r24, 0x81	; 129
    198c:	90 e0       	ldi	r25, 0x00	; 0
    198e:	0e 94 7a 02 	call	0x4f4	; 0x4f4 <LCD_Vid_Send_String>
	LCD_Vid_Send_Custom_Char(COL10,ROW1,1,char2);
    1992:	20 e6       	ldi	r18, 0x60	; 96
    1994:	30 e0       	ldi	r19, 0x00	; 0
    1996:	41 e0       	ldi	r20, 0x01	; 1
    1998:	60 e0       	ldi	r22, 0x00	; 0
    199a:	89 e0       	ldi	r24, 0x09	; 9
    199c:	0e 94 21 03 	call	0x642	; 0x642 <LCD_Vid_Send_Custom_Char>
	LCD_Vid_Send_String("__");
    19a0:	8a e7       	ldi	r24, 0x7A	; 122
    19a2:	90 e0       	ldi	r25, 0x00	; 0
    19a4:	0e 94 7a 02 	call	0x4f4	; 0x4f4 <LCD_Vid_Send_String>
	//_delay_ms(10);
	LCD_Vid_GotoXY(COL1,ROW1);
    19a8:	60 e0       	ldi	r22, 0x00	; 0
    19aa:	80 e0       	ldi	r24, 0x00	; 0
    19ac:	0e 94 16 03 	call	0x62c	; 0x62c <LCD_Vid_GotoXY>
	LCD_Vid_Send_String("--------");
    19b0:	81 e8       	ldi	r24, 0x81	; 129
    19b2:	90 e0       	ldi	r25, 0x00	; 0
    19b4:	0e 94 7a 02 	call	0x4f4	; 0x4f4 <LCD_Vid_Send_String>
	LCD_Vid_Send_Custom_Char(COL9,ROW1,1,char2);
    19b8:	20 e6       	ldi	r18, 0x60	; 96
    19ba:	30 e0       	ldi	r19, 0x00	; 0
    19bc:	41 e0       	ldi	r20, 0x01	; 1
    19be:	60 e0       	ldi	r22, 0x00	; 0
    19c0:	88 e0       	ldi	r24, 0x08	; 8
    19c2:	0e 94 21 03 	call	0x642	; 0x642 <LCD_Vid_Send_Custom_Char>
	LCD_Vid_Send_String("__");
    19c6:	8a e7       	ldi	r24, 0x7A	; 122
    19c8:	90 e0       	ldi	r25, 0x00	; 0
    19ca:	0e 94 7a 02 	call	0x4f4	; 0x4f4 <LCD_Vid_Send_String>
	LCD_Vid_Send_Custom_Char(COL12,ROW1,0,char1);
    19ce:	28 e6       	ldi	r18, 0x68	; 104
    19d0:	30 e0       	ldi	r19, 0x00	; 0
    19d2:	40 e0       	ldi	r20, 0x00	; 0
    19d4:	60 e0       	ldi	r22, 0x00	; 0
    19d6:	8b e0       	ldi	r24, 0x0B	; 11
    19d8:	0e 94 21 03 	call	0x642	; 0x642 <LCD_Vid_Send_Custom_Char>
	//_delay_ms(10);
	LCD_Vid_GotoXY(COL1,ROW1);
    19dc:	60 e0       	ldi	r22, 0x00	; 0
    19de:	80 e0       	ldi	r24, 0x00	; 0
    19e0:	0e 94 16 03 	call	0x62c	; 0x62c <LCD_Vid_GotoXY>
	LCD_Vid_Send_String("-------");
    19e4:	82 e8       	ldi	r24, 0x82	; 130
    19e6:	90 e0       	ldi	r25, 0x00	; 0
    19e8:	0e 94 7a 02 	call	0x4f4	; 0x4f4 <LCD_Vid_Send_String>
	LCD_Vid_Send_Custom_Char(COL8,ROW1,1,char2);
    19ec:	20 e6       	ldi	r18, 0x60	; 96
    19ee:	30 e0       	ldi	r19, 0x00	; 0
    19f0:	41 e0       	ldi	r20, 0x01	; 1
    19f2:	60 e0       	ldi	r22, 0x00	; 0
    19f4:	87 e0       	ldi	r24, 0x07	; 7
    19f6:	0e 94 21 03 	call	0x642	; 0x642 <LCD_Vid_Send_Custom_Char>
	LCD_Vid_Send_String("__");
    19fa:	8a e7       	ldi	r24, 0x7A	; 122
    19fc:	90 e0       	ldi	r25, 0x00	; 0
    19fe:	0e 94 7a 02 	call	0x4f4	; 0x4f4 <LCD_Vid_Send_String>
	LCD_Vid_Send_Custom_Char(COL11,ROW1,0,char1);
    1a02:	28 e6       	ldi	r18, 0x68	; 104
    1a04:	30 e0       	ldi	r19, 0x00	; 0
    1a06:	40 e0       	ldi	r20, 0x00	; 0
    1a08:	60 e0       	ldi	r22, 0x00	; 0
    1a0a:	8a e0       	ldi	r24, 0x0A	; 10
    1a0c:	0e 94 21 03 	call	0x642	; 0x642 <LCD_Vid_Send_Custom_Char>
	LCD_Vid_Send_String("-");
    1a10:	88 e8       	ldi	r24, 0x88	; 136
    1a12:	90 e0       	ldi	r25, 0x00	; 0
    1a14:	0e 94 7a 02 	call	0x4f4	; 0x4f4 <LCD_Vid_Send_String>
	//_delay_ms(10);
	LCD_Vid_GotoXY(COL1,ROW1);
    1a18:	60 e0       	ldi	r22, 0x00	; 0
    1a1a:	80 e0       	ldi	r24, 0x00	; 0
    1a1c:	0e 94 16 03 	call	0x62c	; 0x62c <LCD_Vid_GotoXY>
	LCD_Vid_Send_String("------");
    1a20:	83 e8       	ldi	r24, 0x83	; 131
    1a22:	90 e0       	ldi	r25, 0x00	; 0
    1a24:	0e 94 7a 02 	call	0x4f4	; 0x4f4 <LCD_Vid_Send_String>
	LCD_Vid_Send_Custom_Char(COL7,ROW1,1,char2);
    1a28:	20 e6       	ldi	r18, 0x60	; 96
    1a2a:	30 e0       	ldi	r19, 0x00	; 0
    1a2c:	41 e0       	ldi	r20, 0x01	; 1
    1a2e:	60 e0       	ldi	r22, 0x00	; 0
    1a30:	86 e0       	ldi	r24, 0x06	; 6
    1a32:	0e 94 21 03 	call	0x642	; 0x642 <LCD_Vid_Send_Custom_Char>
	LCD_Vid_Send_String("__");
    1a36:	8a e7       	ldi	r24, 0x7A	; 122
    1a38:	90 e0       	ldi	r25, 0x00	; 0
    1a3a:	0e 94 7a 02 	call	0x4f4	; 0x4f4 <LCD_Vid_Send_String>
	LCD_Vid_Send_Custom_Char(COL10,ROW1,0,char1);
    1a3e:	28 e6       	ldi	r18, 0x68	; 104
    1a40:	30 e0       	ldi	r19, 0x00	; 0
    1a42:	40 e0       	ldi	r20, 0x00	; 0
    1a44:	60 e0       	ldi	r22, 0x00	; 0
    1a46:	89 e0       	ldi	r24, 0x09	; 9
    1a48:	0e 94 21 03 	call	0x642	; 0x642 <LCD_Vid_Send_Custom_Char>
	LCD_Vid_Send_String("--");
    1a4c:	87 e8       	ldi	r24, 0x87	; 135
    1a4e:	90 e0       	ldi	r25, 0x00	; 0
    1a50:	0e 94 7a 02 	call	0x4f4	; 0x4f4 <LCD_Vid_Send_String>
	//_delay_ms(10);
	LCD_Vid_GotoXY(COL1,ROW1);
    1a54:	60 e0       	ldi	r22, 0x00	; 0
    1a56:	80 e0       	ldi	r24, 0x00	; 0
    1a58:	0e 94 16 03 	call	0x62c	; 0x62c <LCD_Vid_GotoXY>
	LCD_Vid_Send_String("-----");
    1a5c:	84 e8       	ldi	r24, 0x84	; 132
    1a5e:	90 e0       	ldi	r25, 0x00	; 0
    1a60:	0e 94 7a 02 	call	0x4f4	; 0x4f4 <LCD_Vid_Send_String>
	LCD_Vid_Send_Custom_Char(COL6,ROW1,1,char2);
    1a64:	20 e6       	ldi	r18, 0x60	; 96
    1a66:	30 e0       	ldi	r19, 0x00	; 0
    1a68:	41 e0       	ldi	r20, 0x01	; 1
    1a6a:	60 e0       	ldi	r22, 0x00	; 0
    1a6c:	85 e0       	ldi	r24, 0x05	; 5
    1a6e:	0e 94 21 03 	call	0x642	; 0x642 <LCD_Vid_Send_Custom_Char>
	LCD_Vid_Send_String("__");
    1a72:	8a e7       	ldi	r24, 0x7A	; 122
    1a74:	90 e0       	ldi	r25, 0x00	; 0
    1a76:	0e 94 7a 02 	call	0x4f4	; 0x4f4 <LCD_Vid_Send_String>
	LCD_Vid_Send_Custom_Char(COL9,ROW1,0,char1);
    1a7a:	28 e6       	ldi	r18, 0x68	; 104
    1a7c:	30 e0       	ldi	r19, 0x00	; 0
    1a7e:	40 e0       	ldi	r20, 0x00	; 0
    1a80:	60 e0       	ldi	r22, 0x00	; 0
    1a82:	88 e0       	ldi	r24, 0x08	; 8
    1a84:	0e 94 21 03 	call	0x642	; 0x642 <LCD_Vid_Send_Custom_Char>
	LCD_Vid_Send_String("---");
    1a88:	86 e8       	ldi	r24, 0x86	; 134
    1a8a:	90 e0       	ldi	r25, 0x00	; 0
    1a8c:	0e 94 7a 02 	call	0x4f4	; 0x4f4 <LCD_Vid_Send_String>
	//_delay_ms(10);
	LCD_Vid_GotoXY(COL1,ROW1);
    1a90:	60 e0       	ldi	r22, 0x00	; 0
    1a92:	80 e0       	ldi	r24, 0x00	; 0
    1a94:	0e 94 16 03 	call	0x62c	; 0x62c <LCD_Vid_GotoXY>
	LCD_Vid_Send_String("----");
    1a98:	85 e8       	ldi	r24, 0x85	; 133
    1a9a:	90 e0       	ldi	r25, 0x00	; 0
    1a9c:	0e 94 7a 02 	call	0x4f4	; 0x4f4 <LCD_Vid_Send_String>
	LCD_Vid_Send_Custom_Char(COL5,ROW1,1,char2);
    1aa0:	20 e6       	ldi	r18, 0x60	; 96
    1aa2:	30 e0       	ldi	r19, 0x00	; 0
    1aa4:	41 e0       	ldi	r20, 0x01	; 1
    1aa6:	60 e0       	ldi	r22, 0x00	; 0
    1aa8:	84 e0       	ldi	r24, 0x04	; 4
    1aaa:	0e 94 21 03 	call	0x642	; 0x642 <LCD_Vid_Send_Custom_Char>
	LCD_Vid_Send_String("__");
    1aae:	8a e7       	ldi	r24, 0x7A	; 122
    1ab0:	90 e0       	ldi	r25, 0x00	; 0
    1ab2:	0e 94 7a 02 	call	0x4f4	; 0x4f4 <LCD_Vid_Send_String>
	LCD_Vid_Send_Custom_Char(COL8,ROW1,0,char1);
    1ab6:	28 e6       	ldi	r18, 0x68	; 104
    1ab8:	30 e0       	ldi	r19, 0x00	; 0
    1aba:	40 e0       	ldi	r20, 0x00	; 0
    1abc:	60 e0       	ldi	r22, 0x00	; 0
    1abe:	87 e0       	ldi	r24, 0x07	; 7
    1ac0:	0e 94 21 03 	call	0x642	; 0x642 <LCD_Vid_Send_Custom_Char>
	LCD_Vid_Send_String("----");
    1ac4:	85 e8       	ldi	r24, 0x85	; 133
    1ac6:	90 e0       	ldi	r25, 0x00	; 0
    1ac8:	0e 94 7a 02 	call	0x4f4	; 0x4f4 <LCD_Vid_Send_String>
	//_delay_ms(10);
	LCD_Vid_GotoXY(COL1,ROW1);
    1acc:	60 e0       	ldi	r22, 0x00	; 0
    1ace:	80 e0       	ldi	r24, 0x00	; 0
    1ad0:	0e 94 16 03 	call	0x62c	; 0x62c <LCD_Vid_GotoXY>
	LCD_Vid_Send_String("---");
    1ad4:	86 e8       	ldi	r24, 0x86	; 134
    1ad6:	90 e0       	ldi	r25, 0x00	; 0
    1ad8:	0e 94 7a 02 	call	0x4f4	; 0x4f4 <LCD_Vid_Send_String>
	LCD_Vid_Send_Custom_Char(COL4,ROW1,1,char2);
    1adc:	20 e6       	ldi	r18, 0x60	; 96
    1ade:	30 e0       	ldi	r19, 0x00	; 0
    1ae0:	41 e0       	ldi	r20, 0x01	; 1
    1ae2:	60 e0       	ldi	r22, 0x00	; 0
    1ae4:	83 e0       	ldi	r24, 0x03	; 3
    1ae6:	0e 94 21 03 	call	0x642	; 0x642 <LCD_Vid_Send_Custom_Char>
	LCD_Vid_Send_String("__");
    1aea:	8a e7       	ldi	r24, 0x7A	; 122
    1aec:	90 e0       	ldi	r25, 0x00	; 0
    1aee:	0e 94 7a 02 	call	0x4f4	; 0x4f4 <LCD_Vid_Send_String>
	LCD_Vid_Send_Custom_Char(COL7,ROW1,0,char1);
    1af2:	28 e6       	ldi	r18, 0x68	; 104
    1af4:	30 e0       	ldi	r19, 0x00	; 0
    1af6:	40 e0       	ldi	r20, 0x00	; 0
    1af8:	60 e0       	ldi	r22, 0x00	; 0
    1afa:	86 e0       	ldi	r24, 0x06	; 6
    1afc:	0e 94 21 03 	call	0x642	; 0x642 <LCD_Vid_Send_Custom_Char>
	LCD_Vid_Send_String("-----");
    1b00:	84 e8       	ldi	r24, 0x84	; 132
    1b02:	90 e0       	ldi	r25, 0x00	; 0
    1b04:	0e 94 7a 02 	call	0x4f4	; 0x4f4 <LCD_Vid_Send_String>
	//_delay_ms(10);
	LCD_Vid_GotoXY(COL1,ROW1);
    1b08:	60 e0       	ldi	r22, 0x00	; 0
    1b0a:	80 e0       	ldi	r24, 0x00	; 0
    1b0c:	0e 94 16 03 	call	0x62c	; 0x62c <LCD_Vid_GotoXY>
	LCD_Vid_Send_String("--");
    1b10:	87 e8       	ldi	r24, 0x87	; 135
    1b12:	90 e0       	ldi	r25, 0x00	; 0
    1b14:	0e 94 7a 02 	call	0x4f4	; 0x4f4 <LCD_Vid_Send_String>
	LCD_Vid_Send_Custom_Char(COL3,ROW1,1,char2);
    1b18:	20 e6       	ldi	r18, 0x60	; 96
    1b1a:	30 e0       	ldi	r19, 0x00	; 0
    1b1c:	41 e0       	ldi	r20, 0x01	; 1
    1b1e:	60 e0       	ldi	r22, 0x00	; 0
    1b20:	82 e0       	ldi	r24, 0x02	; 2
    1b22:	0e 94 21 03 	call	0x642	; 0x642 <LCD_Vid_Send_Custom_Char>
	LCD_Vid_Send_String("__");
    1b26:	8a e7       	ldi	r24, 0x7A	; 122
    1b28:	90 e0       	ldi	r25, 0x00	; 0
    1b2a:	0e 94 7a 02 	call	0x4f4	; 0x4f4 <LCD_Vid_Send_String>
	LCD_Vid_Send_Custom_Char(COL6,ROW1,0,char1);
    1b2e:	28 e6       	ldi	r18, 0x68	; 104
    1b30:	30 e0       	ldi	r19, 0x00	; 0
    1b32:	40 e0       	ldi	r20, 0x00	; 0
    1b34:	60 e0       	ldi	r22, 0x00	; 0
    1b36:	85 e0       	ldi	r24, 0x05	; 5
    1b38:	0e 94 21 03 	call	0x642	; 0x642 <LCD_Vid_Send_Custom_Char>
	LCD_Vid_Send_String("------");
    1b3c:	83 e8       	ldi	r24, 0x83	; 131
    1b3e:	90 e0       	ldi	r25, 0x00	; 0
    1b40:	0e 94 7a 02 	call	0x4f4	; 0x4f4 <LCD_Vid_Send_String>
	//_delay_ms(10);
	LCD_Vid_GotoXY(COL1,ROW1);
    1b44:	60 e0       	ldi	r22, 0x00	; 0
    1b46:	80 e0       	ldi	r24, 0x00	; 0
    1b48:	0e 94 16 03 	call	0x62c	; 0x62c <LCD_Vid_GotoXY>
	LCD_Vid_Send_String("-");
    1b4c:	88 e8       	ldi	r24, 0x88	; 136
    1b4e:	90 e0       	ldi	r25, 0x00	; 0
    1b50:	0e 94 7a 02 	call	0x4f4	; 0x4f4 <LCD_Vid_Send_String>
	LCD_Vid_Send_Custom_Char(COL2,ROW1,1,char2);
    1b54:	20 e6       	ldi	r18, 0x60	; 96
    1b56:	30 e0       	ldi	r19, 0x00	; 0
    1b58:	41 e0       	ldi	r20, 0x01	; 1
    1b5a:	60 e0       	ldi	r22, 0x00	; 0
    1b5c:	81 e0       	ldi	r24, 0x01	; 1
    1b5e:	0e 94 21 03 	call	0x642	; 0x642 <LCD_Vid_Send_Custom_Char>
	LCD_Vid_Send_String("__");
    1b62:	8a e7       	ldi	r24, 0x7A	; 122
    1b64:	90 e0       	ldi	r25, 0x00	; 0
    1b66:	0e 94 7a 02 	call	0x4f4	; 0x4f4 <LCD_Vid_Send_String>
	LCD_Vid_Send_Custom_Char(COL5,ROW1,0,char1);
    1b6a:	28 e6       	ldi	r18, 0x68	; 104
    1b6c:	30 e0       	ldi	r19, 0x00	; 0
    1b6e:	40 e0       	ldi	r20, 0x00	; 0
    1b70:	60 e0       	ldi	r22, 0x00	; 0
    1b72:	84 e0       	ldi	r24, 0x04	; 4
    1b74:	0e 94 21 03 	call	0x642	; 0x642 <LCD_Vid_Send_Custom_Char>
	LCD_Vid_Send_String("-------");
    1b78:	82 e8       	ldi	r24, 0x82	; 130
    1b7a:	90 e0       	ldi	r25, 0x00	; 0
    1b7c:	0e 94 7a 02 	call	0x4f4	; 0x4f4 <LCD_Vid_Send_String>
	//_delay_ms(10);
	LCD_Vid_Send_Custom_Char(COL1,ROW1,1,char2);
    1b80:	20 e6       	ldi	r18, 0x60	; 96
    1b82:	30 e0       	ldi	r19, 0x00	; 0
    1b84:	41 e0       	ldi	r20, 0x01	; 1
    1b86:	60 e0       	ldi	r22, 0x00	; 0
    1b88:	80 e0       	ldi	r24, 0x00	; 0
    1b8a:	0e 94 21 03 	call	0x642	; 0x642 <LCD_Vid_Send_Custom_Char>
	LCD_Vid_Send_String("__");
    1b8e:	8a e7       	ldi	r24, 0x7A	; 122
    1b90:	90 e0       	ldi	r25, 0x00	; 0
    1b92:	0e 94 7a 02 	call	0x4f4	; 0x4f4 <LCD_Vid_Send_String>
	LCD_Vid_Send_Custom_Char(COL4,ROW1,0,char1);
    1b96:	28 e6       	ldi	r18, 0x68	; 104
    1b98:	30 e0       	ldi	r19, 0x00	; 0
    1b9a:	40 e0       	ldi	r20, 0x00	; 0
    1b9c:	60 e0       	ldi	r22, 0x00	; 0
    1b9e:	83 e0       	ldi	r24, 0x03	; 3
    1ba0:	0e 94 21 03 	call	0x642	; 0x642 <LCD_Vid_Send_Custom_Char>
	LCD_Vid_Send_String("--------");
    1ba4:	81 e8       	ldi	r24, 0x81	; 129
    1ba6:	90 e0       	ldi	r25, 0x00	; 0
    1ba8:	0e 94 7a 02 	call	0x4f4	; 0x4f4 <LCD_Vid_Send_String>
    1bac:	08 95       	ret

00001bae <lcd_90>:
	//_delay_ms(10);
}
void lcd_90(){
	LCD_Vid_GotoXY(COL1,ROW1);
    1bae:	60 e0       	ldi	r22, 0x00	; 0
    1bb0:	80 e0       	ldi	r24, 0x00	; 0
    1bb2:	0e 94 16 03 	call	0x62c	; 0x62c <LCD_Vid_GotoXY>
	LCD_Vid_Send_String("_");
    1bb6:	8b e7       	ldi	r24, 0x7B	; 123
    1bb8:	90 e0       	ldi	r25, 0x00	; 0
    1bba:	0e 94 7a 02 	call	0x4f4	; 0x4f4 <LCD_Vid_Send_String>
	LCD_Vid_Send_Custom_Char(COL2,ROW1,0,char1);
    1bbe:	28 e6       	ldi	r18, 0x68	; 104
    1bc0:	30 e0       	ldi	r19, 0x00	; 0
    1bc2:	40 e0       	ldi	r20, 0x00	; 0
    1bc4:	60 e0       	ldi	r22, 0x00	; 0
    1bc6:	81 e0       	ldi	r24, 0x01	; 1
    1bc8:	0e 94 21 03 	call	0x642	; 0x642 <LCD_Vid_Send_Custom_Char>
	LCD_Vid_Send_String("---------");
    1bcc:	80 e8       	ldi	r24, 0x80	; 128
    1bce:	90 e0       	ldi	r25, 0x00	; 0
    1bd0:	0e 94 7a 02 	call	0x4f4	; 0x4f4 <LCD_Vid_Send_String>
	LCD_Vid_Send_Custom_Char(COL12,ROW1,1,char2);
    1bd4:	20 e6       	ldi	r18, 0x60	; 96
    1bd6:	30 e0       	ldi	r19, 0x00	; 0
    1bd8:	41 e0       	ldi	r20, 0x01	; 1
    1bda:	60 e0       	ldi	r22, 0x00	; 0
    1bdc:	8b e0       	ldi	r24, 0x0B	; 11
    1bde:	0e 94 21 03 	call	0x642	; 0x642 <LCD_Vid_Send_Custom_Char>
	//_delay_ms(10);
	LCD_Vid_Send_Custom_Char(COL1,ROW1,0,char1);
    1be2:	28 e6       	ldi	r18, 0x68	; 104
    1be4:	30 e0       	ldi	r19, 0x00	; 0
    1be6:	40 e0       	ldi	r20, 0x00	; 0
    1be8:	60 e0       	ldi	r22, 0x00	; 0
    1bea:	80 e0       	ldi	r24, 0x00	; 0
    1bec:	0e 94 21 03 	call	0x642	; 0x642 <LCD_Vid_Send_Custom_Char>
	LCD_Vid_Send_String("---------");
    1bf0:	80 e8       	ldi	r24, 0x80	; 128
    1bf2:	90 e0       	ldi	r25, 0x00	; 0
    1bf4:	0e 94 7a 02 	call	0x4f4	; 0x4f4 <LCD_Vid_Send_String>
	LCD_Vid_Send_Custom_Char(COL11,ROW1,1,char2);
    1bf8:	20 e6       	ldi	r18, 0x60	; 96
    1bfa:	30 e0       	ldi	r19, 0x00	; 0
    1bfc:	41 e0       	ldi	r20, 0x01	; 1
    1bfe:	60 e0       	ldi	r22, 0x00	; 0
    1c00:	8a e0       	ldi	r24, 0x0A	; 10
    1c02:	0e 94 21 03 	call	0x642	; 0x642 <LCD_Vid_Send_Custom_Char>
	LCD_Vid_Send_String("_");
    1c06:	8b e7       	ldi	r24, 0x7B	; 123
    1c08:	90 e0       	ldi	r25, 0x00	; 0
    1c0a:	0e 94 7a 02 	call	0x4f4	; 0x4f4 <LCD_Vid_Send_String>
	//_delay_ms(10);
	LCD_Vid_GotoXY(COL1,ROW1);
    1c0e:	60 e0       	ldi	r22, 0x00	; 0
    1c10:	80 e0       	ldi	r24, 0x00	; 0
    1c12:	0e 94 16 03 	call	0x62c	; 0x62c <LCD_Vid_GotoXY>
	LCD_Vid_Send_String("---------");
    1c16:	80 e8       	ldi	r24, 0x80	; 128
    1c18:	90 e0       	ldi	r25, 0x00	; 0
    1c1a:	0e 94 7a 02 	call	0x4f4	; 0x4f4 <LCD_Vid_Send_String>
	LCD_Vid_Send_Custom_Char(COL10,ROW1,1,char2);
    1c1e:	20 e6       	ldi	r18, 0x60	; 96
    1c20:	30 e0       	ldi	r19, 0x00	; 0
    1c22:	41 e0       	ldi	r20, 0x01	; 1
    1c24:	60 e0       	ldi	r22, 0x00	; 0
    1c26:	89 e0       	ldi	r24, 0x09	; 9
    1c28:	0e 94 21 03 	call	0x642	; 0x642 <LCD_Vid_Send_Custom_Char>
	LCD_Vid_Send_String("_");
    1c2c:	8b e7       	ldi	r24, 0x7B	; 123
    1c2e:	90 e0       	ldi	r25, 0x00	; 0
    1c30:	0e 94 7a 02 	call	0x4f4	; 0x4f4 <LCD_Vid_Send_String>
	LCD_Vid_Send_Custom_Char(COL12,ROW1,0,char1);
    1c34:	28 e6       	ldi	r18, 0x68	; 104
    1c36:	30 e0       	ldi	r19, 0x00	; 0
    1c38:	40 e0       	ldi	r20, 0x00	; 0
    1c3a:	60 e0       	ldi	r22, 0x00	; 0
    1c3c:	8b e0       	ldi	r24, 0x0B	; 11
    1c3e:	0e 94 21 03 	call	0x642	; 0x642 <LCD_Vid_Send_Custom_Char>
	//_delay_ms(10);
	LCD_Vid_GotoXY(COL1,ROW1);
    1c42:	60 e0       	ldi	r22, 0x00	; 0
    1c44:	80 e0       	ldi	r24, 0x00	; 0
    1c46:	0e 94 16 03 	call	0x62c	; 0x62c <LCD_Vid_GotoXY>
	LCD_Vid_Send_String("--------");
    1c4a:	81 e8       	ldi	r24, 0x81	; 129
    1c4c:	90 e0       	ldi	r25, 0x00	; 0
    1c4e:	0e 94 7a 02 	call	0x4f4	; 0x4f4 <LCD_Vid_Send_String>
	LCD_Vid_Send_Custom_Char(COL9,ROW1,1,char2);
    1c52:	20 e6       	ldi	r18, 0x60	; 96
    1c54:	30 e0       	ldi	r19, 0x00	; 0
    1c56:	41 e0       	ldi	r20, 0x01	; 1
    1c58:	60 e0       	ldi	r22, 0x00	; 0
    1c5a:	88 e0       	ldi	r24, 0x08	; 8
    1c5c:	0e 94 21 03 	call	0x642	; 0x642 <LCD_Vid_Send_Custom_Char>
	LCD_Vid_Send_String("_");
    1c60:	8b e7       	ldi	r24, 0x7B	; 123
    1c62:	90 e0       	ldi	r25, 0x00	; 0
    1c64:	0e 94 7a 02 	call	0x4f4	; 0x4f4 <LCD_Vid_Send_String>
	LCD_Vid_Send_Custom_Char(COL11,ROW1,0,char1);
    1c68:	28 e6       	ldi	r18, 0x68	; 104
    1c6a:	30 e0       	ldi	r19, 0x00	; 0
    1c6c:	40 e0       	ldi	r20, 0x00	; 0
    1c6e:	60 e0       	ldi	r22, 0x00	; 0
    1c70:	8a e0       	ldi	r24, 0x0A	; 10
    1c72:	0e 94 21 03 	call	0x642	; 0x642 <LCD_Vid_Send_Custom_Char>
	LCD_Vid_Send_String("-");
    1c76:	88 e8       	ldi	r24, 0x88	; 136
    1c78:	90 e0       	ldi	r25, 0x00	; 0
    1c7a:	0e 94 7a 02 	call	0x4f4	; 0x4f4 <LCD_Vid_Send_String>
	//_delay_ms(10);
	LCD_Vid_GotoXY(COL1,ROW1);
    1c7e:	60 e0       	ldi	r22, 0x00	; 0
    1c80:	80 e0       	ldi	r24, 0x00	; 0
    1c82:	0e 94 16 03 	call	0x62c	; 0x62c <LCD_Vid_GotoXY>
	LCD_Vid_Send_String("-------");
    1c86:	82 e8       	ldi	r24, 0x82	; 130
    1c88:	90 e0       	ldi	r25, 0x00	; 0
    1c8a:	0e 94 7a 02 	call	0x4f4	; 0x4f4 <LCD_Vid_Send_String>
	LCD_Vid_Send_Custom_Char(COL8,ROW1,1,char2);
    1c8e:	20 e6       	ldi	r18, 0x60	; 96
    1c90:	30 e0       	ldi	r19, 0x00	; 0
    1c92:	41 e0       	ldi	r20, 0x01	; 1
    1c94:	60 e0       	ldi	r22, 0x00	; 0
    1c96:	87 e0       	ldi	r24, 0x07	; 7
    1c98:	0e 94 21 03 	call	0x642	; 0x642 <LCD_Vid_Send_Custom_Char>
	LCD_Vid_Send_String("_");
    1c9c:	8b e7       	ldi	r24, 0x7B	; 123
    1c9e:	90 e0       	ldi	r25, 0x00	; 0
    1ca0:	0e 94 7a 02 	call	0x4f4	; 0x4f4 <LCD_Vid_Send_String>
	LCD_Vid_Send_Custom_Char(COL10,ROW1,0,char1);
    1ca4:	28 e6       	ldi	r18, 0x68	; 104
    1ca6:	30 e0       	ldi	r19, 0x00	; 0
    1ca8:	40 e0       	ldi	r20, 0x00	; 0
    1caa:	60 e0       	ldi	r22, 0x00	; 0
    1cac:	89 e0       	ldi	r24, 0x09	; 9
    1cae:	0e 94 21 03 	call	0x642	; 0x642 <LCD_Vid_Send_Custom_Char>
	LCD_Vid_Send_String("--");
    1cb2:	87 e8       	ldi	r24, 0x87	; 135
    1cb4:	90 e0       	ldi	r25, 0x00	; 0
    1cb6:	0e 94 7a 02 	call	0x4f4	; 0x4f4 <LCD_Vid_Send_String>
	//_delay_ms(10);
	LCD_Vid_GotoXY(COL1,ROW1);
    1cba:	60 e0       	ldi	r22, 0x00	; 0
    1cbc:	80 e0       	ldi	r24, 0x00	; 0
    1cbe:	0e 94 16 03 	call	0x62c	; 0x62c <LCD_Vid_GotoXY>
	LCD_Vid_Send_String("------");
    1cc2:	83 e8       	ldi	r24, 0x83	; 131
    1cc4:	90 e0       	ldi	r25, 0x00	; 0
    1cc6:	0e 94 7a 02 	call	0x4f4	; 0x4f4 <LCD_Vid_Send_String>
	LCD_Vid_Send_Custom_Char(COL7,ROW1,1,char2);
    1cca:	20 e6       	ldi	r18, 0x60	; 96
    1ccc:	30 e0       	ldi	r19, 0x00	; 0
    1cce:	41 e0       	ldi	r20, 0x01	; 1
    1cd0:	60 e0       	ldi	r22, 0x00	; 0
    1cd2:	86 e0       	ldi	r24, 0x06	; 6
    1cd4:	0e 94 21 03 	call	0x642	; 0x642 <LCD_Vid_Send_Custom_Char>
	LCD_Vid_Send_String("_");
    1cd8:	8b e7       	ldi	r24, 0x7B	; 123
    1cda:	90 e0       	ldi	r25, 0x00	; 0
    1cdc:	0e 94 7a 02 	call	0x4f4	; 0x4f4 <LCD_Vid_Send_String>
	LCD_Vid_Send_Custom_Char(COL9,ROW1,0,char1);
    1ce0:	28 e6       	ldi	r18, 0x68	; 104
    1ce2:	30 e0       	ldi	r19, 0x00	; 0
    1ce4:	40 e0       	ldi	r20, 0x00	; 0
    1ce6:	60 e0       	ldi	r22, 0x00	; 0
    1ce8:	88 e0       	ldi	r24, 0x08	; 8
    1cea:	0e 94 21 03 	call	0x642	; 0x642 <LCD_Vid_Send_Custom_Char>
	LCD_Vid_Send_String("---");
    1cee:	86 e8       	ldi	r24, 0x86	; 134
    1cf0:	90 e0       	ldi	r25, 0x00	; 0
    1cf2:	0e 94 7a 02 	call	0x4f4	; 0x4f4 <LCD_Vid_Send_String>
	//_delay_ms(10);
	LCD_Vid_GotoXY(COL1,ROW1);
    1cf6:	60 e0       	ldi	r22, 0x00	; 0
    1cf8:	80 e0       	ldi	r24, 0x00	; 0
    1cfa:	0e 94 16 03 	call	0x62c	; 0x62c <LCD_Vid_GotoXY>
	LCD_Vid_Send_String("-----");
    1cfe:	84 e8       	ldi	r24, 0x84	; 132
    1d00:	90 e0       	ldi	r25, 0x00	; 0
    1d02:	0e 94 7a 02 	call	0x4f4	; 0x4f4 <LCD_Vid_Send_String>
	LCD_Vid_Send_Custom_Char(COL6,ROW1,1,char2);
    1d06:	20 e6       	ldi	r18, 0x60	; 96
    1d08:	30 e0       	ldi	r19, 0x00	; 0
    1d0a:	41 e0       	ldi	r20, 0x01	; 1
    1d0c:	60 e0       	ldi	r22, 0x00	; 0
    1d0e:	85 e0       	ldi	r24, 0x05	; 5
    1d10:	0e 94 21 03 	call	0x642	; 0x642 <LCD_Vid_Send_Custom_Char>
	LCD_Vid_Send_String("_");
    1d14:	8b e7       	ldi	r24, 0x7B	; 123
    1d16:	90 e0       	ldi	r25, 0x00	; 0
    1d18:	0e 94 7a 02 	call	0x4f4	; 0x4f4 <LCD_Vid_Send_String>
	LCD_Vid_Send_Custom_Char(COL8,ROW1,0,char1);
    1d1c:	28 e6       	ldi	r18, 0x68	; 104
    1d1e:	30 e0       	ldi	r19, 0x00	; 0
    1d20:	40 e0       	ldi	r20, 0x00	; 0
    1d22:	60 e0       	ldi	r22, 0x00	; 0
    1d24:	87 e0       	ldi	r24, 0x07	; 7
    1d26:	0e 94 21 03 	call	0x642	; 0x642 <LCD_Vid_Send_Custom_Char>
	LCD_Vid_Send_String("----");
    1d2a:	85 e8       	ldi	r24, 0x85	; 133
    1d2c:	90 e0       	ldi	r25, 0x00	; 0
    1d2e:	0e 94 7a 02 	call	0x4f4	; 0x4f4 <LCD_Vid_Send_String>
	//_delay_ms(10);
	LCD_Vid_GotoXY(COL1,ROW1);
    1d32:	60 e0       	ldi	r22, 0x00	; 0
    1d34:	80 e0       	ldi	r24, 0x00	; 0
    1d36:	0e 94 16 03 	call	0x62c	; 0x62c <LCD_Vid_GotoXY>
	LCD_Vid_Send_String("----");
    1d3a:	85 e8       	ldi	r24, 0x85	; 133
    1d3c:	90 e0       	ldi	r25, 0x00	; 0
    1d3e:	0e 94 7a 02 	call	0x4f4	; 0x4f4 <LCD_Vid_Send_String>
	LCD_Vid_Send_Custom_Char(COL5,ROW1,1,char2);
    1d42:	20 e6       	ldi	r18, 0x60	; 96
    1d44:	30 e0       	ldi	r19, 0x00	; 0
    1d46:	41 e0       	ldi	r20, 0x01	; 1
    1d48:	60 e0       	ldi	r22, 0x00	; 0
    1d4a:	84 e0       	ldi	r24, 0x04	; 4
    1d4c:	0e 94 21 03 	call	0x642	; 0x642 <LCD_Vid_Send_Custom_Char>
	LCD_Vid_Send_String("_");
    1d50:	8b e7       	ldi	r24, 0x7B	; 123
    1d52:	90 e0       	ldi	r25, 0x00	; 0
    1d54:	0e 94 7a 02 	call	0x4f4	; 0x4f4 <LCD_Vid_Send_String>
	LCD_Vid_Send_Custom_Char(COL7,ROW1,0,char1);
    1d58:	28 e6       	ldi	r18, 0x68	; 104
    1d5a:	30 e0       	ldi	r19, 0x00	; 0
    1d5c:	40 e0       	ldi	r20, 0x00	; 0
    1d5e:	60 e0       	ldi	r22, 0x00	; 0
    1d60:	86 e0       	ldi	r24, 0x06	; 6
    1d62:	0e 94 21 03 	call	0x642	; 0x642 <LCD_Vid_Send_Custom_Char>
	LCD_Vid_Send_String("-----");
    1d66:	84 e8       	ldi	r24, 0x84	; 132
    1d68:	90 e0       	ldi	r25, 0x00	; 0
    1d6a:	0e 94 7a 02 	call	0x4f4	; 0x4f4 <LCD_Vid_Send_String>
	//_delay_ms(10);
	LCD_Vid_GotoXY(COL1,ROW1);
    1d6e:	60 e0       	ldi	r22, 0x00	; 0
    1d70:	80 e0       	ldi	r24, 0x00	; 0
    1d72:	0e 94 16 03 	call	0x62c	; 0x62c <LCD_Vid_GotoXY>
	LCD_Vid_Send_String("---");
    1d76:	86 e8       	ldi	r24, 0x86	; 134
    1d78:	90 e0       	ldi	r25, 0x00	; 0
    1d7a:	0e 94 7a 02 	call	0x4f4	; 0x4f4 <LCD_Vid_Send_String>
	LCD_Vid_Send_Custom_Char(COL4,ROW1,1,char2);
    1d7e:	20 e6       	ldi	r18, 0x60	; 96
    1d80:	30 e0       	ldi	r19, 0x00	; 0
    1d82:	41 e0       	ldi	r20, 0x01	; 1
    1d84:	60 e0       	ldi	r22, 0x00	; 0
    1d86:	83 e0       	ldi	r24, 0x03	; 3
    1d88:	0e 94 21 03 	call	0x642	; 0x642 <LCD_Vid_Send_Custom_Char>
	LCD_Vid_Send_String("_");
    1d8c:	8b e7       	ldi	r24, 0x7B	; 123
    1d8e:	90 e0       	ldi	r25, 0x00	; 0
    1d90:	0e 94 7a 02 	call	0x4f4	; 0x4f4 <LCD_Vid_Send_String>
	LCD_Vid_Send_Custom_Char(COL6,ROW1,0,char1);
    1d94:	28 e6       	ldi	r18, 0x68	; 104
    1d96:	30 e0       	ldi	r19, 0x00	; 0
    1d98:	40 e0       	ldi	r20, 0x00	; 0
    1d9a:	60 e0       	ldi	r22, 0x00	; 0
    1d9c:	85 e0       	ldi	r24, 0x05	; 5
    1d9e:	0e 94 21 03 	call	0x642	; 0x642 <LCD_Vid_Send_Custom_Char>
	LCD_Vid_Send_String("------");
    1da2:	83 e8       	ldi	r24, 0x83	; 131
    1da4:	90 e0       	ldi	r25, 0x00	; 0
    1da6:	0e 94 7a 02 	call	0x4f4	; 0x4f4 <LCD_Vid_Send_String>
	//_delay_ms(10);
	LCD_Vid_GotoXY(COL1,ROW1);
    1daa:	60 e0       	ldi	r22, 0x00	; 0
    1dac:	80 e0       	ldi	r24, 0x00	; 0
    1dae:	0e 94 16 03 	call	0x62c	; 0x62c <LCD_Vid_GotoXY>
	LCD_Vid_Send_String("--");
    1db2:	87 e8       	ldi	r24, 0x87	; 135
    1db4:	90 e0       	ldi	r25, 0x00	; 0
    1db6:	0e 94 7a 02 	call	0x4f4	; 0x4f4 <LCD_Vid_Send_String>
	LCD_Vid_Send_Custom_Char(COL3,ROW1,1,char2);
    1dba:	20 e6       	ldi	r18, 0x60	; 96
    1dbc:	30 e0       	ldi	r19, 0x00	; 0
    1dbe:	41 e0       	ldi	r20, 0x01	; 1
    1dc0:	60 e0       	ldi	r22, 0x00	; 0
    1dc2:	82 e0       	ldi	r24, 0x02	; 2
    1dc4:	0e 94 21 03 	call	0x642	; 0x642 <LCD_Vid_Send_Custom_Char>
	LCD_Vid_Send_String("_");
    1dc8:	8b e7       	ldi	r24, 0x7B	; 123
    1dca:	90 e0       	ldi	r25, 0x00	; 0
    1dcc:	0e 94 7a 02 	call	0x4f4	; 0x4f4 <LCD_Vid_Send_String>
	LCD_Vid_Send_Custom_Char(COL5,ROW1,0,char1);
    1dd0:	28 e6       	ldi	r18, 0x68	; 104
    1dd2:	30 e0       	ldi	r19, 0x00	; 0
    1dd4:	40 e0       	ldi	r20, 0x00	; 0
    1dd6:	60 e0       	ldi	r22, 0x00	; 0
    1dd8:	84 e0       	ldi	r24, 0x04	; 4
    1dda:	0e 94 21 03 	call	0x642	; 0x642 <LCD_Vid_Send_Custom_Char>
	LCD_Vid_Send_String("-------");
    1dde:	82 e8       	ldi	r24, 0x82	; 130
    1de0:	90 e0       	ldi	r25, 0x00	; 0
    1de2:	0e 94 7a 02 	call	0x4f4	; 0x4f4 <LCD_Vid_Send_String>
	//_delay_ms(10);
	LCD_Vid_GotoXY(COL1,ROW1);
    1de6:	60 e0       	ldi	r22, 0x00	; 0
    1de8:	80 e0       	ldi	r24, 0x00	; 0
    1dea:	0e 94 16 03 	call	0x62c	; 0x62c <LCD_Vid_GotoXY>
	LCD_Vid_Send_String("-");
    1dee:	88 e8       	ldi	r24, 0x88	; 136
    1df0:	90 e0       	ldi	r25, 0x00	; 0
    1df2:	0e 94 7a 02 	call	0x4f4	; 0x4f4 <LCD_Vid_Send_String>
	LCD_Vid_Send_Custom_Char(COL2,ROW1,1,char2);
    1df6:	20 e6       	ldi	r18, 0x60	; 96
    1df8:	30 e0       	ldi	r19, 0x00	; 0
    1dfa:	41 e0       	ldi	r20, 0x01	; 1
    1dfc:	60 e0       	ldi	r22, 0x00	; 0
    1dfe:	81 e0       	ldi	r24, 0x01	; 1
    1e00:	0e 94 21 03 	call	0x642	; 0x642 <LCD_Vid_Send_Custom_Char>
	LCD_Vid_Send_String("_");
    1e04:	8b e7       	ldi	r24, 0x7B	; 123
    1e06:	90 e0       	ldi	r25, 0x00	; 0
    1e08:	0e 94 7a 02 	call	0x4f4	; 0x4f4 <LCD_Vid_Send_String>
	LCD_Vid_Send_Custom_Char(COL4,ROW1,0,char1);
    1e0c:	28 e6       	ldi	r18, 0x68	; 104
    1e0e:	30 e0       	ldi	r19, 0x00	; 0
    1e10:	40 e0       	ldi	r20, 0x00	; 0
    1e12:	60 e0       	ldi	r22, 0x00	; 0
    1e14:	83 e0       	ldi	r24, 0x03	; 3
    1e16:	0e 94 21 03 	call	0x642	; 0x642 <LCD_Vid_Send_Custom_Char>
	LCD_Vid_Send_String("--------");
    1e1a:	81 e8       	ldi	r24, 0x81	; 129
    1e1c:	90 e0       	ldi	r25, 0x00	; 0
    1e1e:	0e 94 7a 02 	call	0x4f4	; 0x4f4 <LCD_Vid_Send_String>
	//_delay_ms(10);
	LCD_Vid_Send_Custom_Char(COL1,ROW1,1,char2);
    1e22:	20 e6       	ldi	r18, 0x60	; 96
    1e24:	30 e0       	ldi	r19, 0x00	; 0
    1e26:	41 e0       	ldi	r20, 0x01	; 1
    1e28:	60 e0       	ldi	r22, 0x00	; 0
    1e2a:	80 e0       	ldi	r24, 0x00	; 0
    1e2c:	0e 94 21 03 	call	0x642	; 0x642 <LCD_Vid_Send_Custom_Char>
	LCD_Vid_Send_String("_");
    1e30:	8b e7       	ldi	r24, 0x7B	; 123
    1e32:	90 e0       	ldi	r25, 0x00	; 0
    1e34:	0e 94 7a 02 	call	0x4f4	; 0x4f4 <LCD_Vid_Send_String>
	LCD_Vid_Send_Custom_Char(COL3,ROW1,0,char1);
    1e38:	28 e6       	ldi	r18, 0x68	; 104
    1e3a:	30 e0       	ldi	r19, 0x00	; 0
    1e3c:	40 e0       	ldi	r20, 0x00	; 0
    1e3e:	60 e0       	ldi	r22, 0x00	; 0
    1e40:	82 e0       	ldi	r24, 0x02	; 2
    1e42:	0e 94 21 03 	call	0x642	; 0x642 <LCD_Vid_Send_Custom_Char>
	LCD_Vid_Send_String("---------");
    1e46:	80 e8       	ldi	r24, 0x80	; 128
    1e48:	90 e0       	ldi	r25, 0x00	; 0
    1e4a:	0e 94 7a 02 	call	0x4f4	; 0x4f4 <LCD_Vid_Send_String>
    1e4e:	08 95       	ret

00001e50 <lcd_100>:
	//_delay_ms(10);
}
void lcd_100(){
	LCD_Vid_GotoXY(COL1,ROW1);
    1e50:	60 e0       	ldi	r22, 0x00	; 0
    1e52:	80 e0       	ldi	r24, 0x00	; 0
    1e54:	0e 94 16 03 	call	0x62c	; 0x62c <LCD_Vid_GotoXY>
	LCD_Vid_Send_String("------------");
    1e58:	8d e7       	ldi	r24, 0x7D	; 125
    1e5a:	90 e0       	ldi	r25, 0x00	; 0
    1e5c:	0e 94 7a 02 	call	0x4f4	; 0x4f4 <LCD_Vid_Send_String>
    1e60:	08 95       	ret

00001e62 <main>:
}
void SW_ICU();

int main(void)
{
	DIO_Vid_Set_Pin_Dir(PORTB,PIN3,OUTPUT);
    1e62:	41 e0       	ldi	r20, 0x01	; 1
    1e64:	63 e0       	ldi	r22, 0x03	; 3
    1e66:	81 e0       	ldi	r24, 0x01	; 1
    1e68:	0e 94 9a 00 	call	0x134	; 0x134 <DIO_Vid_Set_Pin_Dir>
	DIO_Vid_Set_Pin_Dir(PORTC,PIN2,OUTPUT);
    1e6c:	41 e0       	ldi	r20, 0x01	; 1
    1e6e:	62 e0       	ldi	r22, 0x02	; 2
    1e70:	82 e0       	ldi	r24, 0x02	; 2
    1e72:	0e 94 9a 00 	call	0x134	; 0x134 <DIO_Vid_Set_Pin_Dir>
	
	/* LCD INIT */
    DIO_Vid_Set_Port_Dir(LCD_DPORT, 0XF0);
    1e76:	60 ef       	ldi	r22, 0xF0	; 240
    1e78:	80 e0       	ldi	r24, 0x00	; 0
    1e7a:	0e 94 7c 01 	call	0x2f8	; 0x2f8 <DIO_Vid_Set_Port_Dir>
    DIO_Vid_Set_Pin_Dir(LCD_CPORT, LCD_RS_PIN, OUTPUT);
    1e7e:	41 e0       	ldi	r20, 0x01	; 1
    1e80:	60 e0       	ldi	r22, 0x00	; 0
    1e82:	80 e0       	ldi	r24, 0x00	; 0
    1e84:	0e 94 9a 00 	call	0x134	; 0x134 <DIO_Vid_Set_Pin_Dir>
    DIO_Vid_Set_Pin_Dir(LCD_CPORT, LCD_RW_PIN, OUTPUT);
    1e88:	41 e0       	ldi	r20, 0x01	; 1
    1e8a:	61 e0       	ldi	r22, 0x01	; 1
    1e8c:	80 e0       	ldi	r24, 0x00	; 0
    1e8e:	0e 94 9a 00 	call	0x134	; 0x134 <DIO_Vid_Set_Pin_Dir>
    DIO_Vid_Set_Pin_Dir(LCD_CPORT, LCD_EN_PIN, OUTPUT);
    1e92:	41 e0       	ldi	r20, 0x01	; 1
    1e94:	62 e0       	ldi	r22, 0x02	; 2
    1e96:	80 e0       	ldi	r24, 0x00	; 0
    1e98:	0e 94 9a 00 	call	0x134	; 0x134 <DIO_Vid_Set_Pin_Dir>
    LCD_Vid_Init();
    1e9c:	0e 94 5b 02 	call	0x4b6	; 0x4b6 <LCD_Vid_Init>
	
	/* ENABLE GIE */
	GIE_Vid_Interrupt_Enable();
    1ea0:	0e 94 e0 01 	call	0x3c0	; 0x3c0 <GIE_Vid_Interrupt_Enable>
	
	/* INTERRUPT INIT */
	EXT_Vid_Interrupt_Init0(RISING_EDGE);
    1ea4:	83 e0       	ldi	r24, 0x03	; 3
    1ea6:	0e 94 8c 01 	call	0x318	; 0x318 <EXT_Vid_Interrupt_Init0>
	EXT_Vid_Interrupt_Init12();
    1eaa:	0e 94 9e 01 	call	0x33c	; 0x33c <EXT_Vid_Interrupt_Init12>
	EXT_Vid_Enable_Interrupt0();
    1eae:	0e 94 a8 01 	call	0x350	; 0x350 <EXT_Vid_Enable_Interrupt0>
	EXT_Vid_Enable_Interrupt1();
    1eb2:	0e 94 ac 01 	call	0x358	; 0x358 <EXT_Vid_Enable_Interrupt1>
	EXT_Vid_Enable_Interrupt2();
    1eb6:	0e 94 b0 01 	call	0x360	; 0x360 <EXT_Vid_Enable_Interrupt2>
	
	/* INIT TIMER 1 */
	TIMER1_Vid_NormalMode_Init();
    1eba:	0e 94 d1 10 	call	0x21a2	; 0x21a2 <TIMER1_Vid_NormalMode_Init>
	
	/* CALLBACK FUNCTION */
	SET_CallBack(SW_ICU);
    1ebe:	8c e4       	ldi	r24, 0x4C	; 76
    1ec0:	93 e0       	ldi	r25, 0x03	; 3
    1ec2:	0e 94 b4 01 	call	0x368	; 0x368 <SET_CallBack>
	
    while (1) 
    {
		TIMER0_Vid_FastPWM(ton_val);
    1ec6:	80 91 9b 00 	lds	r24, 0x009B	; 0x80009b <ton_val>
    1eca:	0e 94 a9 10 	call	0x2152	; 0x2152 <TIMER0_Vid_FastPWM>
		if(ton_val == 0){
    1ece:	80 91 9b 00 	lds	r24, 0x009B	; 0x80009b <ton_val>
    1ed2:	81 11       	cpse	r24, r1
    1ed4:	46 c0       	rjmp	.+140    	; 0x1f62 <main+0x100>
			LCD_Vid_GotoXY(COL1,ROW2);
    1ed6:	61 e0       	ldi	r22, 0x01	; 1
    1ed8:	0e 94 16 03 	call	0x62c	; 0x62c <LCD_Vid_GotoXY>
			LCD_Vid_Send_String("ON=");
    1edc:	8a e8       	ldi	r24, 0x8A	; 138
    1ede:	90 e0       	ldi	r25, 0x00	; 0
    1ee0:	0e 94 7a 02 	call	0x4f4	; 0x4f4 <LCD_Vid_Send_String>
			LCD_Vid_GotoXY(COL6,ROW2);
    1ee4:	61 e0       	ldi	r22, 0x01	; 1
    1ee6:	85 e0       	ldi	r24, 0x05	; 5
    1ee8:	0e 94 16 03 	call	0x62c	; 0x62c <LCD_Vid_GotoXY>
			LCD_Vid_Send_Data(' ');
    1eec:	80 e2       	ldi	r24, 0x20	; 32
    1eee:	0e 94 41 02 	call	0x482	; 0x482 <LCD_Vid_Send_Data>
			LCD_Vid_GotoXY(COL5,ROW2);
    1ef2:	61 e0       	ldi	r22, 0x01	; 1
    1ef4:	84 e0       	ldi	r24, 0x04	; 4
    1ef6:	0e 94 16 03 	call	0x62c	; 0x62c <LCD_Vid_GotoXY>
			LCD_Vid_Send_Data(' ');
    1efa:	80 e2       	ldi	r24, 0x20	; 32
    1efc:	0e 94 41 02 	call	0x482	; 0x482 <LCD_Vid_Send_Data>
			LCD_Vid_GotoXY(COL4,ROW2);
    1f00:	61 e0       	ldi	r22, 0x01	; 1
    1f02:	83 e0       	ldi	r24, 0x03	; 3
    1f04:	0e 94 16 03 	call	0x62c	; 0x62c <LCD_Vid_GotoXY>
			LCD_Vid_Send_Number(0);
    1f08:	80 e0       	ldi	r24, 0x00	; 0
    1f0a:	90 e0       	ldi	r25, 0x00	; 0
    1f0c:	0e 94 99 02 	call	0x532	; 0x532 <LCD_Vid_Send_Number>
			LCD_Vid_GotoXY(COL10,ROW2);
    1f10:	61 e0       	ldi	r22, 0x01	; 1
    1f12:	89 e0       	ldi	r24, 0x09	; 9
    1f14:	0e 94 16 03 	call	0x62c	; 0x62c <LCD_Vid_GotoXY>
			LCD_Vid_Send_String("TOV=");
    1f18:	8e e8       	ldi	r24, 0x8E	; 142
    1f1a:	90 e0       	ldi	r25, 0x00	; 0
    1f1c:	0e 94 7a 02 	call	0x4f4	; 0x4f4 <LCD_Vid_Send_String>
			LCD_Vid_Send_Number(256);
    1f20:	80 e0       	ldi	r24, 0x00	; 0
    1f22:	91 e0       	ldi	r25, 0x01	; 1
    1f24:	0e 94 99 02 	call	0x532	; 0x532 <LCD_Vid_Send_Number>
			LCD_Vid_GotoXY(COL15,ROW1);
    1f28:	60 e0       	ldi	r22, 0x00	; 0
    1f2a:	8e e0       	ldi	r24, 0x0E	; 14
    1f2c:	0e 94 16 03 	call	0x62c	; 0x62c <LCD_Vid_GotoXY>
			LCD_Vid_Send_Data(' ');
    1f30:	80 e2       	ldi	r24, 0x20	; 32
    1f32:	0e 94 41 02 	call	0x482	; 0x482 <LCD_Vid_Send_Data>
			LCD_Vid_GotoXY(COL16,ROW1);
    1f36:	60 e0       	ldi	r22, 0x00	; 0
    1f38:	8f e0       	ldi	r24, 0x0F	; 15
    1f3a:	0e 94 16 03 	call	0x62c	; 0x62c <LCD_Vid_GotoXY>
			LCD_Vid_Send_Data(' ');
    1f3e:	80 e2       	ldi	r24, 0x20	; 32
    1f40:	0e 94 41 02 	call	0x482	; 0x482 <LCD_Vid_Send_Data>
			LCD_Vid_GotoXY(COL13,ROW1);
    1f44:	60 e0       	ldi	r22, 0x00	; 0
    1f46:	8c e0       	ldi	r24, 0x0C	; 12
    1f48:	0e 94 16 03 	call	0x62c	; 0x62c <LCD_Vid_GotoXY>
			LCD_Vid_Send_Number(ton_val);
    1f4c:	80 91 9b 00 	lds	r24, 0x009B	; 0x80009b <ton_val>
    1f50:	90 e0       	ldi	r25, 0x00	; 0
    1f52:	0e 94 99 02 	call	0x532	; 0x532 <LCD_Vid_Send_Number>
			LCD_Vid_Send_Data('%');
    1f56:	85 e2       	ldi	r24, 0x25	; 37
    1f58:	0e 94 41 02 	call	0x482	; 0x482 <LCD_Vid_Send_Data>
			lcd_0();
    1f5c:	0e 94 72 03 	call	0x6e4	; 0x6e4 <lcd_0>
    1f60:	b2 cf       	rjmp	.-156    	; 0x1ec6 <main+0x64>
		}
		else if(ton_val == 100){
    1f62:	80 91 9b 00 	lds	r24, 0x009B	; 0x80009b <ton_val>
    1f66:	84 36       	cpi	r24, 0x64	; 100
    1f68:	c9 f5       	brne	.+114    	; 0x1fdc <main+0x17a>
			LCD_Vid_GotoXY(COL1,ROW2);
    1f6a:	61 e0       	ldi	r22, 0x01	; 1
    1f6c:	80 e0       	ldi	r24, 0x00	; 0
    1f6e:	0e 94 16 03 	call	0x62c	; 0x62c <LCD_Vid_GotoXY>
			LCD_Vid_Send_String("ON=");
    1f72:	8a e8       	ldi	r24, 0x8A	; 138
    1f74:	90 e0       	ldi	r25, 0x00	; 0
    1f76:	0e 94 7a 02 	call	0x4f4	; 0x4f4 <LCD_Vid_Send_String>
			LCD_Vid_GotoXY(COL6,ROW2);
    1f7a:	61 e0       	ldi	r22, 0x01	; 1
    1f7c:	85 e0       	ldi	r24, 0x05	; 5
    1f7e:	0e 94 16 03 	call	0x62c	; 0x62c <LCD_Vid_GotoXY>
			LCD_Vid_Send_Data(' ');
    1f82:	80 e2       	ldi	r24, 0x20	; 32
    1f84:	0e 94 41 02 	call	0x482	; 0x482 <LCD_Vid_Send_Data>
			LCD_Vid_GotoXY(COL5,ROW2);
    1f88:	61 e0       	ldi	r22, 0x01	; 1
    1f8a:	84 e0       	ldi	r24, 0x04	; 4
    1f8c:	0e 94 16 03 	call	0x62c	; 0x62c <LCD_Vid_GotoXY>
			LCD_Vid_Send_Data(' ');
    1f90:	80 e2       	ldi	r24, 0x20	; 32
    1f92:	0e 94 41 02 	call	0x482	; 0x482 <LCD_Vid_Send_Data>
			LCD_Vid_GotoXY(COL4,ROW2);
    1f96:	61 e0       	ldi	r22, 0x01	; 1
    1f98:	83 e0       	ldi	r24, 0x03	; 3
    1f9a:	0e 94 16 03 	call	0x62c	; 0x62c <LCD_Vid_GotoXY>
			LCD_Vid_Send_Number(256);
    1f9e:	80 e0       	ldi	r24, 0x00	; 0
    1fa0:	91 e0       	ldi	r25, 0x01	; 1
    1fa2:	0e 94 99 02 	call	0x532	; 0x532 <LCD_Vid_Send_Number>
			LCD_Vid_GotoXY(COL10,ROW2);
    1fa6:	61 e0       	ldi	r22, 0x01	; 1
    1fa8:	89 e0       	ldi	r24, 0x09	; 9
    1faa:	0e 94 16 03 	call	0x62c	; 0x62c <LCD_Vid_GotoXY>
			LCD_Vid_Send_String("TOV=");
    1fae:	8e e8       	ldi	r24, 0x8E	; 142
    1fb0:	90 e0       	ldi	r25, 0x00	; 0
    1fb2:	0e 94 7a 02 	call	0x4f4	; 0x4f4 <LCD_Vid_Send_String>
			LCD_Vid_Send_Number(256);
    1fb6:	80 e0       	ldi	r24, 0x00	; 0
    1fb8:	91 e0       	ldi	r25, 0x01	; 1
    1fba:	0e 94 99 02 	call	0x532	; 0x532 <LCD_Vid_Send_Number>
			LCD_Vid_GotoXY(COL13,ROW1);
    1fbe:	60 e0       	ldi	r22, 0x00	; 0
    1fc0:	8c e0       	ldi	r24, 0x0C	; 12
    1fc2:	0e 94 16 03 	call	0x62c	; 0x62c <LCD_Vid_GotoXY>
			LCD_Vid_Send_Number(ton_val);
    1fc6:	80 91 9b 00 	lds	r24, 0x009B	; 0x80009b <ton_val>
    1fca:	90 e0       	ldi	r25, 0x00	; 0
    1fcc:	0e 94 99 02 	call	0x532	; 0x532 <LCD_Vid_Send_Number>
			LCD_Vid_Send_Data('%');
    1fd0:	85 e2       	ldi	r24, 0x25	; 37
    1fd2:	0e 94 41 02 	call	0x482	; 0x482 <LCD_Vid_Send_Data>
			lcd_100();
    1fd6:	0e 94 28 0f 	call	0x1e50	; 0x1e50 <lcd_100>
    1fda:	75 cf       	rjmp	.-278    	; 0x1ec6 <main+0x64>
		}
		else{
			LCD_Vid_GotoXY(COL1,ROW2);
    1fdc:	61 e0       	ldi	r22, 0x01	; 1
    1fde:	80 e0       	ldi	r24, 0x00	; 0
    1fe0:	0e 94 16 03 	call	0x62c	; 0x62c <LCD_Vid_GotoXY>
			LCD_Vid_Send_String("ON=");
    1fe4:	8a e8       	ldi	r24, 0x8A	; 138
    1fe6:	90 e0       	ldi	r25, 0x00	; 0
    1fe8:	0e 94 7a 02 	call	0x4f4	; 0x4f4 <LCD_Vid_Send_String>
			LCD_Vid_GotoXY(COL6,ROW2);
    1fec:	61 e0       	ldi	r22, 0x01	; 1
    1fee:	85 e0       	ldi	r24, 0x05	; 5
    1ff0:	0e 94 16 03 	call	0x62c	; 0x62c <LCD_Vid_GotoXY>
			LCD_Vid_Send_Data(' ');
    1ff4:	80 e2       	ldi	r24, 0x20	; 32
    1ff6:	0e 94 41 02 	call	0x482	; 0x482 <LCD_Vid_Send_Data>
			LCD_Vid_GotoXY(COL5,ROW2);
    1ffa:	61 e0       	ldi	r22, 0x01	; 1
    1ffc:	84 e0       	ldi	r24, 0x04	; 4
    1ffe:	0e 94 16 03 	call	0x62c	; 0x62c <LCD_Vid_GotoXY>
			LCD_Vid_Send_Data(' ');
    2002:	80 e2       	ldi	r24, 0x20	; 32
    2004:	0e 94 41 02 	call	0x482	; 0x482 <LCD_Vid_Send_Data>
			LCD_Vid_GotoXY(COL4,ROW2);
    2008:	61 e0       	ldi	r22, 0x01	; 1
    200a:	83 e0       	ldi	r24, 0x03	; 3
    200c:	0e 94 16 03 	call	0x62c	; 0x62c <LCD_Vid_GotoXY>
			LCD_Vid_Send_Number(on_tick);
    2010:	80 91 99 00 	lds	r24, 0x0099	; 0x800099 <on_tick>
    2014:	90 91 9a 00 	lds	r25, 0x009A	; 0x80009a <on_tick+0x1>
    2018:	0e 94 99 02 	call	0x532	; 0x532 <LCD_Vid_Send_Number>
			LCD_Vid_GotoXY(COL10,ROW2);
    201c:	61 e0       	ldi	r22, 0x01	; 1
    201e:	89 e0       	ldi	r24, 0x09	; 9
    2020:	0e 94 16 03 	call	0x62c	; 0x62c <LCD_Vid_GotoXY>
			LCD_Vid_Send_String("TOV=");
    2024:	8e e8       	ldi	r24, 0x8E	; 142
    2026:	90 e0       	ldi	r25, 0x00	; 0
    2028:	0e 94 7a 02 	call	0x4f4	; 0x4f4 <LCD_Vid_Send_String>
			LCD_Vid_Send_Number(tov_tick);
    202c:	80 91 97 00 	lds	r24, 0x0097	; 0x800097 <tov_tick>
    2030:	90 91 98 00 	lds	r25, 0x0098	; 0x800098 <tov_tick+0x1>
    2034:	0e 94 99 02 	call	0x532	; 0x532 <LCD_Vid_Send_Number>
			LCD_Vid_GotoXY(COL16,ROW1);
    2038:	60 e0       	ldi	r22, 0x00	; 0
    203a:	8f e0       	ldi	r24, 0x0F	; 15
    203c:	0e 94 16 03 	call	0x62c	; 0x62c <LCD_Vid_GotoXY>
			LCD_Vid_Send_Data(' ');
    2040:	80 e2       	ldi	r24, 0x20	; 32
    2042:	0e 94 41 02 	call	0x482	; 0x482 <LCD_Vid_Send_Data>
			LCD_Vid_GotoXY(COL13,ROW1);
    2046:	60 e0       	ldi	r22, 0x00	; 0
    2048:	8c e0       	ldi	r24, 0x0C	; 12
    204a:	0e 94 16 03 	call	0x62c	; 0x62c <LCD_Vid_GotoXY>
			LCD_Vid_Send_Number(ton_val);
    204e:	80 91 9b 00 	lds	r24, 0x009B	; 0x80009b <ton_val>
    2052:	90 e0       	ldi	r25, 0x00	; 0
    2054:	0e 94 99 02 	call	0x532	; 0x532 <LCD_Vid_Send_Number>
			LCD_Vid_Send_Data('%');
    2058:	85 e2       	ldi	r24, 0x25	; 37
    205a:	0e 94 41 02 	call	0x482	; 0x482 <LCD_Vid_Send_Data>
			switch(ton_val){
    205e:	e0 91 9b 00 	lds	r30, 0x009B	; 0x80009b <ton_val>
    2062:	8e 2f       	mov	r24, r30
    2064:	90 e0       	ldi	r25, 0x00	; 0
    2066:	fc 01       	movw	r30, r24
    2068:	3a 97       	sbiw	r30, 0x0a	; 10
    206a:	e1 35       	cpi	r30, 0x51	; 81
    206c:	f1 05       	cpc	r31, r1
    206e:	08 f0       	brcs	.+2      	; 0x2072 <main+0x210>
    2070:	2a cf       	rjmp	.-428    	; 0x1ec6 <main+0x64>
    2072:	e6 5d       	subi	r30, 0xD6	; 214
    2074:	ff 4f       	sbci	r31, 0xFF	; 255
    2076:	0c 94 2b 12 	jmp	0x2456	; 0x2456 <__tablejump2__>
				case 10 : lcd_10(); break;
    207a:	0e 94 7b 03 	call	0x6f6	; 0x6f6 <lcd_10>
    207e:	23 cf       	rjmp	.-442    	; 0x1ec6 <main+0x64>
				case 20 : lcd_20(); break;
    2080:	0e 94 a0 04 	call	0x940	; 0x940 <lcd_20>
    2084:	20 cf       	rjmp	.-448    	; 0x1ec6 <main+0x64>
				case 30 : lcd_30(); break;
    2086:	0e 94 f1 05 	call	0xbe2	; 0xbe2 <lcd_30>
    208a:	1d cf       	rjmp	.-454    	; 0x1ec6 <main+0x64>
				case 40 : lcd_40(); break;
    208c:	0e 94 42 07 	call	0xe84	; 0xe84 <lcd_40>
    2090:	1a cf       	rjmp	.-460    	; 0x1ec6 <main+0x64>
				case 50 : lcd_50(); break;
    2092:	0e 94 93 08 	call	0x1126	; 0x1126 <lcd_50>
    2096:	17 cf       	rjmp	.-466    	; 0x1ec6 <main+0x64>
				case 60 : lcd_60(); break;
    2098:	0e 94 e4 09 	call	0x13c8	; 0x13c8 <lcd_60>
    209c:	14 cf       	rjmp	.-472    	; 0x1ec6 <main+0x64>
				case 70 : lcd_70(); break;
    209e:	0e 94 35 0b 	call	0x166a	; 0x166a <lcd_70>
    20a2:	11 cf       	rjmp	.-478    	; 0x1ec6 <main+0x64>
				case 80 : lcd_80(); break;
    20a4:	0e 94 86 0c 	call	0x190c	; 0x190c <lcd_80>
    20a8:	0e cf       	rjmp	.-484    	; 0x1ec6 <main+0x64>
				case 90 : lcd_90(); break;
    20aa:	0e 94 d7 0d 	call	0x1bae	; 0x1bae <lcd_90>
    20ae:	0b cf       	rjmp	.-490    	; 0x1ec6 <main+0x64>

000020b0 <__vector_2>:
	}
}

/* THIS IS ISR() FUNCTION IN WHICH WHEN INT1 IS HAPPEN IT AUTOMATICALLY JUMP TO THIS FUNCTION TO DO IT */
void __vector_2(void)__attribute__((signal)) ;
void __vector_2(void){
    20b0:	1f 92       	push	r1
    20b2:	0f 92       	push	r0
    20b4:	0f b6       	in	r0, 0x3f	; 63
    20b6:	0f 92       	push	r0
    20b8:	11 24       	eor	r1, r1
    20ba:	8f 93       	push	r24
	
	if(ton_val >0){
    20bc:	80 91 9b 00 	lds	r24, 0x009B	; 0x80009b <ton_val>
    20c0:	88 23       	and	r24, r24
    20c2:	29 f0       	breq	.+10     	; 0x20ce <__vector_2+0x1e>
		ton_val -= 10;
    20c4:	80 91 9b 00 	lds	r24, 0x009B	; 0x80009b <ton_val>
    20c8:	8a 50       	subi	r24, 0x0A	; 10
    20ca:	80 93 9b 00 	sts	0x009B, r24	; 0x80009b <ton_val>
	}
}
    20ce:	8f 91       	pop	r24
    20d0:	0f 90       	pop	r0
    20d2:	0f be       	out	0x3f, r0	; 63
    20d4:	0f 90       	pop	r0
    20d6:	1f 90       	pop	r1
    20d8:	18 95       	reti

000020da <__vector_3>:


/* THIS IS ISR() FUNCTION IN WHICH WHEN INT2 IS HAPPEN IT AUTOMATICALLY JUMP TO THIS FUNCTION TO DO IT */
void __vector_3(void)__attribute__((signal)) ;
void __vector_3(void){
    20da:	1f 92       	push	r1
    20dc:	0f 92       	push	r0
    20de:	0f b6       	in	r0, 0x3f	; 63
    20e0:	0f 92       	push	r0
    20e2:	11 24       	eor	r1, r1
    20e4:	8f 93       	push	r24
	if(ton_val <100){
    20e6:	80 91 9b 00 	lds	r24, 0x009B	; 0x80009b <ton_val>
    20ea:	84 36       	cpi	r24, 0x64	; 100
    20ec:	28 f4       	brcc	.+10     	; 0x20f8 <__vector_3+0x1e>
		ton_val += 10;
    20ee:	80 91 9b 00 	lds	r24, 0x009B	; 0x80009b <ton_val>
    20f2:	86 5f       	subi	r24, 0xF6	; 246
    20f4:	80 93 9b 00 	sts	0x009B, r24	; 0x80009b <ton_val>
	}
    20f8:	8f 91       	pop	r24
    20fa:	0f 90       	pop	r0
    20fc:	0f be       	out	0x3f, r0	; 63
    20fe:	0f 90       	pop	r0
    2100:	1f 90       	pop	r1
    2102:	18 95       	reti

00002104 <__vector_11>:
	OV_MODE_ptr();
}

ISR(TIMER0_COMP){
	CTC_MODE_ptr();
}
    2104:	1f 92       	push	r1
    2106:	0f 92       	push	r0
    2108:	0f b6       	in	r0, 0x3f	; 63
    210a:	0f 92       	push	r0
    210c:	11 24       	eor	r1, r1
    210e:	2f 93       	push	r18
    2110:	3f 93       	push	r19
    2112:	4f 93       	push	r20
    2114:	5f 93       	push	r21
    2116:	6f 93       	push	r22
    2118:	7f 93       	push	r23
    211a:	8f 93       	push	r24
    211c:	9f 93       	push	r25
    211e:	af 93       	push	r26
    2120:	bf 93       	push	r27
    2122:	ef 93       	push	r30
    2124:	ff 93       	push	r31
    2126:	e0 91 9c 00 	lds	r30, 0x009C	; 0x80009c <OV_MODE_ptr>
    212a:	f0 91 9d 00 	lds	r31, 0x009D	; 0x80009d <OV_MODE_ptr+0x1>
    212e:	09 95       	icall
    2130:	ff 91       	pop	r31
    2132:	ef 91       	pop	r30
    2134:	bf 91       	pop	r27
    2136:	af 91       	pop	r26
    2138:	9f 91       	pop	r25
    213a:	8f 91       	pop	r24
    213c:	7f 91       	pop	r23
    213e:	6f 91       	pop	r22
    2140:	5f 91       	pop	r21
    2142:	4f 91       	pop	r20
    2144:	3f 91       	pop	r19
    2146:	2f 91       	pop	r18
    2148:	0f 90       	pop	r0
    214a:	0f be       	out	0x3f, r0	; 63
    214c:	0f 90       	pop	r0
    214e:	1f 90       	pop	r1
    2150:	18 95       	reti

00002152 <TIMER0_Vid_FastPWM>:

/* FAST PWM "PULSE WIDTH MODULATION" ---> CONTROLING THE WIDTH OF THE PULSE(ACTIVE HIGH) */ 
void TIMER0_Vid_FastPWM(u8 copy_u8_duty){
	
	/* SELECT PRESCALER */
	TCCR0_REG &= 0b11111000 ;           // BIT MASK FOR TCCR0_REG
    2152:	93 b7       	in	r25, 0x33	; 51
    2154:	98 7f       	andi	r25, 0xF8	; 248
    2156:	93 bf       	out	0x33, r25	; 51
	TCCR0_REG |= TIMER0_PRESCALER_Ms ;  // START THE TIMER WITH TIMER0_PRESCALER (_64_PRESCALAR)
    2158:	93 b7       	in	r25, 0x33	; 51
    215a:	93 60       	ori	r25, 0x03	; 3
    215c:	93 bf       	out	0x33, r25	; 51
	
	/* BIT(6,3) IN TCCR0_REG RESPONSIBLE FOR ---> SELECTING THE MODE OF TIMER */ 
	SET_BIT(TCCR0_REG,6);  // SELECT FAST PWM MODE 
    215e:	93 b7       	in	r25, 0x33	; 51
    2160:	90 64       	ori	r25, 0x40	; 64
    2162:	93 bf       	out	0x33, r25	; 51
	SET_BIT(TCCR0_REG,3);
    2164:	93 b7       	in	r25, 0x33	; 51
    2166:	98 60       	ori	r25, 0x08	; 8
    2168:	93 bf       	out	0x33, r25	; 51
	/* BIT(5,4) IN TCCRO_REG RESPONSIBLE FOR ---> SELECTING COMPARE MATCH OUTPUT MODE OCCORDING TO THE TABLE */
	SET_BIT(TCCR0_REG,5);  // SELECT NONINVERTING MODE --> SET OC0 ON COMPARE MATCH (THE OUTPUT OF PWM IS CONNECTED TO OC0 PIN AUTOMATICALLY) (BELONGS TO TIMER0) (PORTB,PIN3)
    216a:	93 b7       	in	r25, 0x33	; 51
    216c:	90 62       	ori	r25, 0x20	; 32
    216e:	93 bf       	out	0x33, r25	; 51
	CLR_BIT(TCCR0_REG,4);
    2170:	93 b7       	in	r25, 0x33	; 51
    2172:	9f 7e       	andi	r25, 0xEF	; 239
    2174:	93 bf       	out	0x33, r25	; 51
	/* SET OCR ---> DUTY = OCR(count) / 2^RES % , OCR(count) = (DUTY/100) * 2^RES = D/100 *256 = D*2.56 */
	OCR0_REG = copy_u8_duty*2.55;   // SET OCR0_REG WITH THE VALUE BY WHICH THE TIMER WILL MAKE CLR ON COMPARE WHEN IT REACHES THE OCR VALUE
    2176:	68 2f       	mov	r22, r24
    2178:	70 e0       	ldi	r23, 0x00	; 0
    217a:	80 e0       	ldi	r24, 0x00	; 0
    217c:	90 e0       	ldi	r25, 0x00	; 0
    217e:	0e 94 1e 11 	call	0x223c	; 0x223c <__floatsisf>
    2182:	23 e3       	ldi	r18, 0x33	; 51
    2184:	33 e3       	ldi	r19, 0x33	; 51
    2186:	43 e2       	ldi	r20, 0x23	; 35
    2188:	50 e4       	ldi	r21, 0x40	; 64
    218a:	0e 94 aa 11 	call	0x2354	; 0x2354 <__mulsf3>
    218e:	0e 94 ed 10 	call	0x21da	; 0x21da <__fixunssfsi>
    2192:	6c bf       	out	0x3c, r22	; 60
	/* WAIT TO CTC HAPPEN */
	while (GET_BIT(TIFR_REG,1) == 0); // WAIT TILL THE COMPARE PROCESS FINISHED
    2194:	08 b6       	in	r0, 0x38	; 56
    2196:	01 fe       	sbrs	r0, 1
    2198:	fd cf       	rjmp	.-6      	; 0x2194 <TIMER0_Vid_FastPWM+0x42>
	/* CLEAR CTC FLAG */
	SET_BIT(TIFR_REG,1);
    219a:	88 b7       	in	r24, 0x38	; 56
    219c:	82 60       	ori	r24, 0x02	; 2
    219e:	88 bf       	out	0x38, r24	; 56
    21a0:	08 95       	ret

000021a2 <TIMER1_Vid_NormalMode_Init>:
	OCR1A_REG = copy_u32_val;
}

void TIMER1_Vid_NormalMode_Init(){
	/* SELECT NORMAL MODE */
	CLR_BIT(TCCR1A_REG,0);
    21a2:	8f b5       	in	r24, 0x2f	; 47
    21a4:	8e 7f       	andi	r24, 0xFE	; 254
    21a6:	8f bd       	out	0x2f, r24	; 47
	CLR_BIT(TCCR1A_REG,1);
    21a8:	8f b5       	in	r24, 0x2f	; 47
    21aa:	8d 7f       	andi	r24, 0xFD	; 253
    21ac:	8f bd       	out	0x2f, r24	; 47
	CLR_BIT(TCCR1B_REG,3);
    21ae:	8e b5       	in	r24, 0x2e	; 46
    21b0:	87 7f       	andi	r24, 0xF7	; 247
    21b2:	8e bd       	out	0x2e, r24	; 46
	CLR_BIT(TCCR1B_REG,4);
    21b4:	8e b5       	in	r24, 0x2e	; 46
    21b6:	8f 7e       	andi	r24, 0xEF	; 239
    21b8:	8e bd       	out	0x2e, r24	; 46
	/* SET PRESCALER --> 64 */
	SET_BIT(TCCR1B_REG,0);
    21ba:	8e b5       	in	r24, 0x2e	; 46
    21bc:	81 60       	ori	r24, 0x01	; 1
    21be:	8e bd       	out	0x2e, r24	; 46
	SET_BIT(TCCR1B_REG,1);
    21c0:	8e b5       	in	r24, 0x2e	; 46
    21c2:	82 60       	ori	r24, 0x02	; 2
    21c4:	8e bd       	out	0x2e, r24	; 46
	CLR_BIT(TCCR1B_REG,2);
    21c6:	8e b5       	in	r24, 0x2e	; 46
    21c8:	8b 7f       	andi	r24, 0xFB	; 251
    21ca:	8e bd       	out	0x2e, r24	; 46
    21cc:	08 95       	ret

000021ce <TIMER1_Vid_Reset_Timer>:
}
void TIMER1_Vid_Reset_Timer(){
	TCNT1_REG = 0x00;
    21ce:	1d bc       	out	0x2d, r1	; 45
    21d0:	1c bc       	out	0x2c, r1	; 44
    21d2:	08 95       	ret

000021d4 <TIMER1_u32_ReadVal>:
}
u32  TIMER1_u32_ReadVal(){
	return TCNT1_REG;
    21d4:	8c b5       	in	r24, 0x2c	; 44
    21d6:	9d b5       	in	r25, 0x2d	; 45
    21d8:	08 95       	ret

000021da <__fixunssfsi>:
    21da:	0e 94 89 11 	call	0x2312	; 0x2312 <__fp_splitA>
    21de:	88 f0       	brcs	.+34     	; 0x2202 <__fixunssfsi+0x28>
    21e0:	9f 57       	subi	r25, 0x7F	; 127
    21e2:	98 f0       	brcs	.+38     	; 0x220a <__fixunssfsi+0x30>
    21e4:	b9 2f       	mov	r27, r25
    21e6:	99 27       	eor	r25, r25
    21e8:	b7 51       	subi	r27, 0x17	; 23
    21ea:	b0 f0       	brcs	.+44     	; 0x2218 <__fixunssfsi+0x3e>
    21ec:	e1 f0       	breq	.+56     	; 0x2226 <__fixunssfsi+0x4c>
    21ee:	66 0f       	add	r22, r22
    21f0:	77 1f       	adc	r23, r23
    21f2:	88 1f       	adc	r24, r24
    21f4:	99 1f       	adc	r25, r25
    21f6:	1a f0       	brmi	.+6      	; 0x21fe <__fixunssfsi+0x24>
    21f8:	ba 95       	dec	r27
    21fa:	c9 f7       	brne	.-14     	; 0x21ee <__fixunssfsi+0x14>
    21fc:	14 c0       	rjmp	.+40     	; 0x2226 <__fixunssfsi+0x4c>
    21fe:	b1 30       	cpi	r27, 0x01	; 1
    2200:	91 f0       	breq	.+36     	; 0x2226 <__fixunssfsi+0x4c>
    2202:	0e 94 a3 11 	call	0x2346	; 0x2346 <__fp_zero>
    2206:	b1 e0       	ldi	r27, 0x01	; 1
    2208:	08 95       	ret
    220a:	0c 94 a3 11 	jmp	0x2346	; 0x2346 <__fp_zero>
    220e:	67 2f       	mov	r22, r23
    2210:	78 2f       	mov	r23, r24
    2212:	88 27       	eor	r24, r24
    2214:	b8 5f       	subi	r27, 0xF8	; 248
    2216:	39 f0       	breq	.+14     	; 0x2226 <__fixunssfsi+0x4c>
    2218:	b9 3f       	cpi	r27, 0xF9	; 249
    221a:	cc f3       	brlt	.-14     	; 0x220e <__fixunssfsi+0x34>
    221c:	86 95       	lsr	r24
    221e:	77 95       	ror	r23
    2220:	67 95       	ror	r22
    2222:	b3 95       	inc	r27
    2224:	d9 f7       	brne	.-10     	; 0x221c <__fixunssfsi+0x42>
    2226:	3e f4       	brtc	.+14     	; 0x2236 <__fixunssfsi+0x5c>
    2228:	90 95       	com	r25
    222a:	80 95       	com	r24
    222c:	70 95       	com	r23
    222e:	61 95       	neg	r22
    2230:	7f 4f       	sbci	r23, 0xFF	; 255
    2232:	8f 4f       	sbci	r24, 0xFF	; 255
    2234:	9f 4f       	sbci	r25, 0xFF	; 255
    2236:	08 95       	ret

00002238 <__floatunsisf>:
    2238:	e8 94       	clt
    223a:	09 c0       	rjmp	.+18     	; 0x224e <__floatsisf+0x12>

0000223c <__floatsisf>:
    223c:	97 fb       	bst	r25, 7
    223e:	3e f4       	brtc	.+14     	; 0x224e <__floatsisf+0x12>
    2240:	90 95       	com	r25
    2242:	80 95       	com	r24
    2244:	70 95       	com	r23
    2246:	61 95       	neg	r22
    2248:	7f 4f       	sbci	r23, 0xFF	; 255
    224a:	8f 4f       	sbci	r24, 0xFF	; 255
    224c:	9f 4f       	sbci	r25, 0xFF	; 255
    224e:	99 23       	and	r25, r25
    2250:	a9 f0       	breq	.+42     	; 0x227c <__floatsisf+0x40>
    2252:	f9 2f       	mov	r31, r25
    2254:	96 e9       	ldi	r25, 0x96	; 150
    2256:	bb 27       	eor	r27, r27
    2258:	93 95       	inc	r25
    225a:	f6 95       	lsr	r31
    225c:	87 95       	ror	r24
    225e:	77 95       	ror	r23
    2260:	67 95       	ror	r22
    2262:	b7 95       	ror	r27
    2264:	f1 11       	cpse	r31, r1
    2266:	f8 cf       	rjmp	.-16     	; 0x2258 <__floatsisf+0x1c>
    2268:	fa f4       	brpl	.+62     	; 0x22a8 <__floatsisf+0x6c>
    226a:	bb 0f       	add	r27, r27
    226c:	11 f4       	brne	.+4      	; 0x2272 <__floatsisf+0x36>
    226e:	60 ff       	sbrs	r22, 0
    2270:	1b c0       	rjmp	.+54     	; 0x22a8 <__floatsisf+0x6c>
    2272:	6f 5f       	subi	r22, 0xFF	; 255
    2274:	7f 4f       	sbci	r23, 0xFF	; 255
    2276:	8f 4f       	sbci	r24, 0xFF	; 255
    2278:	9f 4f       	sbci	r25, 0xFF	; 255
    227a:	16 c0       	rjmp	.+44     	; 0x22a8 <__floatsisf+0x6c>
    227c:	88 23       	and	r24, r24
    227e:	11 f0       	breq	.+4      	; 0x2284 <__floatsisf+0x48>
    2280:	96 e9       	ldi	r25, 0x96	; 150
    2282:	11 c0       	rjmp	.+34     	; 0x22a6 <__floatsisf+0x6a>
    2284:	77 23       	and	r23, r23
    2286:	21 f0       	breq	.+8      	; 0x2290 <__floatsisf+0x54>
    2288:	9e e8       	ldi	r25, 0x8E	; 142
    228a:	87 2f       	mov	r24, r23
    228c:	76 2f       	mov	r23, r22
    228e:	05 c0       	rjmp	.+10     	; 0x229a <__floatsisf+0x5e>
    2290:	66 23       	and	r22, r22
    2292:	71 f0       	breq	.+28     	; 0x22b0 <__floatsisf+0x74>
    2294:	96 e8       	ldi	r25, 0x86	; 134
    2296:	86 2f       	mov	r24, r22
    2298:	70 e0       	ldi	r23, 0x00	; 0
    229a:	60 e0       	ldi	r22, 0x00	; 0
    229c:	2a f0       	brmi	.+10     	; 0x22a8 <__floatsisf+0x6c>
    229e:	9a 95       	dec	r25
    22a0:	66 0f       	add	r22, r22
    22a2:	77 1f       	adc	r23, r23
    22a4:	88 1f       	adc	r24, r24
    22a6:	da f7       	brpl	.-10     	; 0x229e <__floatsisf+0x62>
    22a8:	88 0f       	add	r24, r24
    22aa:	96 95       	lsr	r25
    22ac:	87 95       	ror	r24
    22ae:	97 f9       	bld	r25, 7
    22b0:	08 95       	ret

000022b2 <__fp_inf>:
    22b2:	97 f9       	bld	r25, 7
    22b4:	9f 67       	ori	r25, 0x7F	; 127
    22b6:	80 e8       	ldi	r24, 0x80	; 128
    22b8:	70 e0       	ldi	r23, 0x00	; 0
    22ba:	60 e0       	ldi	r22, 0x00	; 0
    22bc:	08 95       	ret

000022be <__fp_nan>:
    22be:	9f ef       	ldi	r25, 0xFF	; 255
    22c0:	80 ec       	ldi	r24, 0xC0	; 192
    22c2:	08 95       	ret

000022c4 <__fp_pscA>:
    22c4:	00 24       	eor	r0, r0
    22c6:	0a 94       	dec	r0
    22c8:	16 16       	cp	r1, r22
    22ca:	17 06       	cpc	r1, r23
    22cc:	18 06       	cpc	r1, r24
    22ce:	09 06       	cpc	r0, r25
    22d0:	08 95       	ret

000022d2 <__fp_pscB>:
    22d2:	00 24       	eor	r0, r0
    22d4:	0a 94       	dec	r0
    22d6:	12 16       	cp	r1, r18
    22d8:	13 06       	cpc	r1, r19
    22da:	14 06       	cpc	r1, r20
    22dc:	05 06       	cpc	r0, r21
    22de:	08 95       	ret

000022e0 <__fp_round>:
    22e0:	09 2e       	mov	r0, r25
    22e2:	03 94       	inc	r0
    22e4:	00 0c       	add	r0, r0
    22e6:	11 f4       	brne	.+4      	; 0x22ec <__fp_round+0xc>
    22e8:	88 23       	and	r24, r24
    22ea:	52 f0       	brmi	.+20     	; 0x2300 <__fp_round+0x20>
    22ec:	bb 0f       	add	r27, r27
    22ee:	40 f4       	brcc	.+16     	; 0x2300 <__fp_round+0x20>
    22f0:	bf 2b       	or	r27, r31
    22f2:	11 f4       	brne	.+4      	; 0x22f8 <__fp_round+0x18>
    22f4:	60 ff       	sbrs	r22, 0
    22f6:	04 c0       	rjmp	.+8      	; 0x2300 <__fp_round+0x20>
    22f8:	6f 5f       	subi	r22, 0xFF	; 255
    22fa:	7f 4f       	sbci	r23, 0xFF	; 255
    22fc:	8f 4f       	sbci	r24, 0xFF	; 255
    22fe:	9f 4f       	sbci	r25, 0xFF	; 255
    2300:	08 95       	ret

00002302 <__fp_split3>:
    2302:	57 fd       	sbrc	r21, 7
    2304:	90 58       	subi	r25, 0x80	; 128
    2306:	44 0f       	add	r20, r20
    2308:	55 1f       	adc	r21, r21
    230a:	59 f0       	breq	.+22     	; 0x2322 <__fp_splitA+0x10>
    230c:	5f 3f       	cpi	r21, 0xFF	; 255
    230e:	71 f0       	breq	.+28     	; 0x232c <__fp_splitA+0x1a>
    2310:	47 95       	ror	r20

00002312 <__fp_splitA>:
    2312:	88 0f       	add	r24, r24
    2314:	97 fb       	bst	r25, 7
    2316:	99 1f       	adc	r25, r25
    2318:	61 f0       	breq	.+24     	; 0x2332 <__fp_splitA+0x20>
    231a:	9f 3f       	cpi	r25, 0xFF	; 255
    231c:	79 f0       	breq	.+30     	; 0x233c <__fp_splitA+0x2a>
    231e:	87 95       	ror	r24
    2320:	08 95       	ret
    2322:	12 16       	cp	r1, r18
    2324:	13 06       	cpc	r1, r19
    2326:	14 06       	cpc	r1, r20
    2328:	55 1f       	adc	r21, r21
    232a:	f2 cf       	rjmp	.-28     	; 0x2310 <__fp_split3+0xe>
    232c:	46 95       	lsr	r20
    232e:	f1 df       	rcall	.-30     	; 0x2312 <__fp_splitA>
    2330:	08 c0       	rjmp	.+16     	; 0x2342 <__fp_splitA+0x30>
    2332:	16 16       	cp	r1, r22
    2334:	17 06       	cpc	r1, r23
    2336:	18 06       	cpc	r1, r24
    2338:	99 1f       	adc	r25, r25
    233a:	f1 cf       	rjmp	.-30     	; 0x231e <__fp_splitA+0xc>
    233c:	86 95       	lsr	r24
    233e:	71 05       	cpc	r23, r1
    2340:	61 05       	cpc	r22, r1
    2342:	08 94       	sec
    2344:	08 95       	ret

00002346 <__fp_zero>:
    2346:	e8 94       	clt

00002348 <__fp_szero>:
    2348:	bb 27       	eor	r27, r27
    234a:	66 27       	eor	r22, r22
    234c:	77 27       	eor	r23, r23
    234e:	cb 01       	movw	r24, r22
    2350:	97 f9       	bld	r25, 7
    2352:	08 95       	ret

00002354 <__mulsf3>:
    2354:	0e 94 bd 11 	call	0x237a	; 0x237a <__mulsf3x>
    2358:	0c 94 70 11 	jmp	0x22e0	; 0x22e0 <__fp_round>
    235c:	0e 94 62 11 	call	0x22c4	; 0x22c4 <__fp_pscA>
    2360:	38 f0       	brcs	.+14     	; 0x2370 <__mulsf3+0x1c>
    2362:	0e 94 69 11 	call	0x22d2	; 0x22d2 <__fp_pscB>
    2366:	20 f0       	brcs	.+8      	; 0x2370 <__mulsf3+0x1c>
    2368:	95 23       	and	r25, r21
    236a:	11 f0       	breq	.+4      	; 0x2370 <__mulsf3+0x1c>
    236c:	0c 94 59 11 	jmp	0x22b2	; 0x22b2 <__fp_inf>
    2370:	0c 94 5f 11 	jmp	0x22be	; 0x22be <__fp_nan>
    2374:	11 24       	eor	r1, r1
    2376:	0c 94 a4 11 	jmp	0x2348	; 0x2348 <__fp_szero>

0000237a <__mulsf3x>:
    237a:	0e 94 81 11 	call	0x2302	; 0x2302 <__fp_split3>
    237e:	70 f3       	brcs	.-36     	; 0x235c <__mulsf3+0x8>

00002380 <__mulsf3_pse>:
    2380:	95 9f       	mul	r25, r21
    2382:	c1 f3       	breq	.-16     	; 0x2374 <__mulsf3+0x20>
    2384:	95 0f       	add	r25, r21
    2386:	50 e0       	ldi	r21, 0x00	; 0
    2388:	55 1f       	adc	r21, r21
    238a:	62 9f       	mul	r22, r18
    238c:	f0 01       	movw	r30, r0
    238e:	72 9f       	mul	r23, r18
    2390:	bb 27       	eor	r27, r27
    2392:	f0 0d       	add	r31, r0
    2394:	b1 1d       	adc	r27, r1
    2396:	63 9f       	mul	r22, r19
    2398:	aa 27       	eor	r26, r26
    239a:	f0 0d       	add	r31, r0
    239c:	b1 1d       	adc	r27, r1
    239e:	aa 1f       	adc	r26, r26
    23a0:	64 9f       	mul	r22, r20
    23a2:	66 27       	eor	r22, r22
    23a4:	b0 0d       	add	r27, r0
    23a6:	a1 1d       	adc	r26, r1
    23a8:	66 1f       	adc	r22, r22
    23aa:	82 9f       	mul	r24, r18
    23ac:	22 27       	eor	r18, r18
    23ae:	b0 0d       	add	r27, r0
    23b0:	a1 1d       	adc	r26, r1
    23b2:	62 1f       	adc	r22, r18
    23b4:	73 9f       	mul	r23, r19
    23b6:	b0 0d       	add	r27, r0
    23b8:	a1 1d       	adc	r26, r1
    23ba:	62 1f       	adc	r22, r18
    23bc:	83 9f       	mul	r24, r19
    23be:	a0 0d       	add	r26, r0
    23c0:	61 1d       	adc	r22, r1
    23c2:	22 1f       	adc	r18, r18
    23c4:	74 9f       	mul	r23, r20
    23c6:	33 27       	eor	r19, r19
    23c8:	a0 0d       	add	r26, r0
    23ca:	61 1d       	adc	r22, r1
    23cc:	23 1f       	adc	r18, r19
    23ce:	84 9f       	mul	r24, r20
    23d0:	60 0d       	add	r22, r0
    23d2:	21 1d       	adc	r18, r1
    23d4:	82 2f       	mov	r24, r18
    23d6:	76 2f       	mov	r23, r22
    23d8:	6a 2f       	mov	r22, r26
    23da:	11 24       	eor	r1, r1
    23dc:	9f 57       	subi	r25, 0x7F	; 127
    23de:	50 40       	sbci	r21, 0x00	; 0
    23e0:	9a f0       	brmi	.+38     	; 0x2408 <__mulsf3_pse+0x88>
    23e2:	f1 f0       	breq	.+60     	; 0x2420 <__mulsf3_pse+0xa0>
    23e4:	88 23       	and	r24, r24
    23e6:	4a f0       	brmi	.+18     	; 0x23fa <__mulsf3_pse+0x7a>
    23e8:	ee 0f       	add	r30, r30
    23ea:	ff 1f       	adc	r31, r31
    23ec:	bb 1f       	adc	r27, r27
    23ee:	66 1f       	adc	r22, r22
    23f0:	77 1f       	adc	r23, r23
    23f2:	88 1f       	adc	r24, r24
    23f4:	91 50       	subi	r25, 0x01	; 1
    23f6:	50 40       	sbci	r21, 0x00	; 0
    23f8:	a9 f7       	brne	.-22     	; 0x23e4 <__mulsf3_pse+0x64>
    23fa:	9e 3f       	cpi	r25, 0xFE	; 254
    23fc:	51 05       	cpc	r21, r1
    23fe:	80 f0       	brcs	.+32     	; 0x2420 <__mulsf3_pse+0xa0>
    2400:	0c 94 59 11 	jmp	0x22b2	; 0x22b2 <__fp_inf>
    2404:	0c 94 a4 11 	jmp	0x2348	; 0x2348 <__fp_szero>
    2408:	5f 3f       	cpi	r21, 0xFF	; 255
    240a:	e4 f3       	brlt	.-8      	; 0x2404 <__mulsf3_pse+0x84>
    240c:	98 3e       	cpi	r25, 0xE8	; 232
    240e:	d4 f3       	brlt	.-12     	; 0x2404 <__mulsf3_pse+0x84>
    2410:	86 95       	lsr	r24
    2412:	77 95       	ror	r23
    2414:	67 95       	ror	r22
    2416:	b7 95       	ror	r27
    2418:	f7 95       	ror	r31
    241a:	e7 95       	ror	r30
    241c:	9f 5f       	subi	r25, 0xFF	; 255
    241e:	c1 f7       	brne	.-16     	; 0x2410 <__mulsf3_pse+0x90>
    2420:	fe 2b       	or	r31, r30
    2422:	88 0f       	add	r24, r24
    2424:	91 1d       	adc	r25, r1
    2426:	96 95       	lsr	r25
    2428:	87 95       	ror	r24
    242a:	97 f9       	bld	r25, 7
    242c:	08 95       	ret

0000242e <__divmodhi4>:
    242e:	97 fb       	bst	r25, 7
    2430:	07 2e       	mov	r0, r23
    2432:	16 f4       	brtc	.+4      	; 0x2438 <__divmodhi4+0xa>
    2434:	00 94       	com	r0
    2436:	07 d0       	rcall	.+14     	; 0x2446 <__divmodhi4_neg1>
    2438:	77 fd       	sbrc	r23, 7
    243a:	09 d0       	rcall	.+18     	; 0x244e <__divmodhi4_neg2>
    243c:	0e 94 31 12 	call	0x2462	; 0x2462 <__udivmodhi4>
    2440:	07 fc       	sbrc	r0, 7
    2442:	05 d0       	rcall	.+10     	; 0x244e <__divmodhi4_neg2>
    2444:	3e f4       	brtc	.+14     	; 0x2454 <__divmodhi4_exit>

00002446 <__divmodhi4_neg1>:
    2446:	90 95       	com	r25
    2448:	81 95       	neg	r24
    244a:	9f 4f       	sbci	r25, 0xFF	; 255
    244c:	08 95       	ret

0000244e <__divmodhi4_neg2>:
    244e:	70 95       	com	r23
    2450:	61 95       	neg	r22
    2452:	7f 4f       	sbci	r23, 0xFF	; 255

00002454 <__divmodhi4_exit>:
    2454:	08 95       	ret

00002456 <__tablejump2__>:
    2456:	ee 0f       	add	r30, r30
    2458:	ff 1f       	adc	r31, r31
    245a:	05 90       	lpm	r0, Z+
    245c:	f4 91       	lpm	r31, Z
    245e:	e0 2d       	mov	r30, r0
    2460:	09 94       	ijmp

00002462 <__udivmodhi4>:
    2462:	aa 1b       	sub	r26, r26
    2464:	bb 1b       	sub	r27, r27
    2466:	51 e1       	ldi	r21, 0x11	; 17
    2468:	07 c0       	rjmp	.+14     	; 0x2478 <__udivmodhi4_ep>

0000246a <__udivmodhi4_loop>:
    246a:	aa 1f       	adc	r26, r26
    246c:	bb 1f       	adc	r27, r27
    246e:	a6 17       	cp	r26, r22
    2470:	b7 07       	cpc	r27, r23
    2472:	10 f0       	brcs	.+4      	; 0x2478 <__udivmodhi4_ep>
    2474:	a6 1b       	sub	r26, r22
    2476:	b7 0b       	sbc	r27, r23

00002478 <__udivmodhi4_ep>:
    2478:	88 1f       	adc	r24, r24
    247a:	99 1f       	adc	r25, r25
    247c:	5a 95       	dec	r21
    247e:	a9 f7       	brne	.-22     	; 0x246a <__udivmodhi4_loop>
    2480:	80 95       	com	r24
    2482:	90 95       	com	r25
    2484:	bc 01       	movw	r22, r24
    2486:	cd 01       	movw	r24, r26
    2488:	08 95       	ret

0000248a <_exit>:
    248a:	f8 94       	cli

0000248c <__stop_program>:
    248c:	ff cf       	rjmp	.-2      	; 0x248c <__stop_program>
